
vi:     file format elf32-i386


Disassembly of section .text:

00000000 <code>:
       0:	8d 4c 24 04          	lea    ecx,[esp+0x4]
       4:	83 e4 f0             	and    esp,0xfffffff0
       7:	ff 71 fc             	push   DWORD PTR [ecx-0x4]
       a:	55                   	push   ebp
       b:	89 e5                	mov    ebp,esp
       d:	56                   	push   esi
       e:	53                   	push   ebx
       f:	51                   	push   ecx
      10:	83 ec 3c             	sub    esp,0x3c
      13:	89 cb                	mov    ebx,ecx
      15:	c6 05 90 4e 00 00 00 	mov    BYTE PTR ds:0x4e90,0x0
      1c:	83 3b 02             	cmp    DWORD PTR [ebx],0x2
      1f:	74 1d                	je     3e <code+0x3e>
      21:	83 ec 0c             	sub    esp,0xc
      24:	68 7e 32 00 00       	push   0x327e
      29:	e8 29 32 00 00       	call   3257 <code+0x3257>
      2e:	83 c4 10             	add    esp,0x10
      31:	83 ec 0c             	sub    esp,0xc
      34:	6a 00                	push   0x0
      36:	e8 c9 20 00 00       	call   2104 <code+0x2104>
      3b:	83 c4 10             	add    esp,0x10
      3e:	8b 43 04             	mov    eax,DWORD PTR [ebx+0x4]
      41:	83 c0 04             	add    eax,0x4
      44:	8b 10                	mov    edx,DWORD PTR [eax]
      46:	b8 c0 50 00 00       	mov    eax,0x50c0
      4b:	83 ec 04             	sub    esp,0x4
      4e:	68 ff 00 00 00       	push   0xff
      53:	52                   	push   edx
      54:	50                   	push   eax
      55:	e8 87 1e 00 00       	call   1ee1 <code+0x1ee1>
      5a:	83 c4 10             	add    esp,0x10
      5d:	b8 c0 50 00 00       	mov    eax,0x50c0
      62:	83 ec 08             	sub    esp,0x8
      65:	6a 00                	push   0x0
      67:	50                   	push   eax
      68:	e8 05 23 00 00       	call   2372 <code+0x2372>
      6d:	83 c4 10             	add    esp,0x10
      70:	89 45 c8             	mov    DWORD PTR [ebp-0x38],eax
      73:	83 7d c8 ff          	cmp    DWORD PTR [ebp-0x38],0xffffffff
      77:	75 22                	jne    9b <code+0x9b>
      79:	83 ec 08             	sub    esp,0x8
      7c:	68 c0 50 00 00       	push   0x50c0
      81:	68 91 32 00 00       	push   0x3291
      86:	e8 cc 31 00 00       	call   3257 <code+0x3257>
      8b:	83 c4 10             	add    esp,0x10
      8e:	83 ec 0c             	sub    esp,0xc
      91:	6a 00                	push   0x0
      93:	e8 6c 20 00 00       	call   2104 <code+0x2104>
      98:	83 c4 10             	add    esp,0x10
      9b:	83 ec 04             	sub    esp,0x4
      9e:	68 47 07 00 00       	push   0x747
      a3:	6a 00                	push   0x0
      a5:	68 e0 55 00 00       	push   0x55e0
      aa:	e8 51 1f 00 00       	call   2000 <code+0x2000>
      af:	83 c4 10             	add    esp,0x10
      b2:	c7 45 cc 00 00 00 00 	mov    DWORD PTR [ebp-0x34],0x0
      b9:	c7 45 d0 00 00 00 00 	mov    DWORD PTR [ebp-0x30],0x0
      c0:	c7 45 e0 01 00 00 00 	mov    DWORD PTR [ebp-0x20],0x1
      c7:	83 7d cc 16          	cmp    DWORD PTR [ebp-0x34],0x16
      cb:	0f 8f ce 00 00 00    	jg     19f <code+0x19f>
      d1:	83 7d e0 01          	cmp    DWORD PTR [ebp-0x20],0x1
      d5:	75 33                	jne    10a <code+0x10a>
      d7:	83 ec 04             	sub    esp,0x4
      da:	68 00 04 00 00       	push   0x400
      df:	68 e0 51 00 00       	push   0x51e0
      e4:	ff 75 c8             	push   DWORD PTR [ebp-0x38]
      e7:	e8 be 22 00 00       	call   23aa <code+0x23aa>
      ec:	83 c4 10             	add    esp,0x10
      ef:	89 45 d4             	mov    DWORD PTR [ebp-0x2c],eax
      f2:	83 7d d4 00          	cmp    DWORD PTR [ebp-0x2c],0x0
      f6:	0f 84 a6 00 00 00    	je     1a2 <code+0x1a2>
      fc:	c7 45 d8 00 00 00 00 	mov    DWORD PTR [ebp-0x28],0x0
     103:	c7 45 e0 00 00 00 00 	mov    DWORD PTR [ebp-0x20],0x0
     10a:	8b 45 d8             	mov    eax,DWORD PTR [ebp-0x28]
     10d:	3b 45 d4             	cmp    eax,DWORD PTR [ebp-0x2c]
     110:	75 09                	jne    11b <code+0x11b>
     112:	c7 45 e0 01 00 00 00 	mov    DWORD PTR [ebp-0x20],0x1
     119:	eb 7f                	jmp    19a <code+0x19a>
     11b:	8b 45 d8             	mov    eax,DWORD PTR [ebp-0x28]
     11e:	8a 80 e0 51 00 00    	mov    al,BYTE PTR [eax+0x51e0]
     124:	3c 0a                	cmp    al,0xa
     126:	75 3f                	jne    167 <code+0x167>
     128:	83 ec 0c             	sub    esp,0xc
     12b:	68 ac 32 00 00       	push   0x32ac
     130:	e8 22 31 00 00       	call   3257 <code+0x3257>
     135:	83 c4 10             	add    esp,0x10
     138:	8b 55 cc             	mov    edx,DWORD PTR [ebp-0x34]
     13b:	8b 4d d0             	mov    ecx,DWORD PTR [ebp-0x30]
     13e:	89 d0                	mov    eax,edx
     140:	c1 e0 03             	shl    eax,0x3
     143:	01 d0                	add    eax,edx
     145:	8d 14 c5 00 00 00 00 	lea    edx,[eax*8+0x0]
     14c:	01 d0                	add    eax,edx
     14e:	01 c8                	add    eax,ecx
     150:	05 e0 55 00 00       	add    eax,0x55e0
     155:	c6 00 00             	mov    BYTE PTR [eax],0x0
     158:	ff 45 cc             	inc    DWORD PTR [ebp-0x34]
     15b:	c7 45 d0 00 00 00 00 	mov    DWORD PTR [ebp-0x30],0x0
     162:	ff 45 d8             	inc    DWORD PTR [ebp-0x28]
     165:	eb 33                	jmp    19a <code+0x19a>
     167:	8b 4d cc             	mov    ecx,DWORD PTR [ebp-0x34]
     16a:	8b 5d d0             	mov    ebx,DWORD PTR [ebp-0x30]
     16d:	8b 45 d8             	mov    eax,DWORD PTR [ebp-0x28]
     170:	8a 90 e0 51 00 00    	mov    dl,BYTE PTR [eax+0x51e0]
     176:	89 c8                	mov    eax,ecx
     178:	c1 e0 03             	shl    eax,0x3
     17b:	01 c8                	add    eax,ecx
     17d:	8d 0c c5 00 00 00 00 	lea    ecx,[eax*8+0x0]
     184:	01 c8                	add    eax,ecx
     186:	01 d8                	add    eax,ebx
     188:	05 e0 55 00 00       	add    eax,0x55e0
     18d:	88 10                	mov    BYTE PTR [eax],dl
     18f:	ff 45 d0             	inc    DWORD PTR [ebp-0x30]
     192:	ff 45 d8             	inc    DWORD PTR [ebp-0x28]
     195:	e9 2d ff ff ff       	jmp    c7 <code+0xc7>
     19a:	e9 28 ff ff ff       	jmp    c7 <code+0xc7>
     19f:	90                   	nop
     1a0:	eb 01                	jmp    1a3 <code+0x1a3>
     1a2:	90                   	nop
     1a3:	83 ec 0c             	sub    esp,0xc
     1a6:	ff 75 c8             	push   DWORD PTR [ebp-0x38]
     1a9:	e8 ed 21 00 00       	call   239b <code+0x239b>
     1ae:	83 c4 10             	add    esp,0x10
     1b1:	8b 45 cc             	mov    eax,DWORD PTR [ebp-0x34]
     1b4:	a3 a4 50 00 00       	mov    ds:0x50a4,eax
     1b9:	83 ec 0c             	sub    esp,0xc
     1bc:	68 b6 32 00 00       	push   0x32b6
     1c1:	e8 91 30 00 00       	call   3257 <code+0x3257>
     1c6:	83 c4 10             	add    esp,0x10
     1c9:	e8 37 20 00 00       	call   2205 <code+0x2205>
     1ce:	a1 a4 50 00 00       	mov    eax,ds:0x50a4
     1d3:	83 ec 0c             	sub    esp,0xc
     1d6:	50                   	push   eax
     1d7:	e8 f0 0a 00 00       	call   ccc <code+0xccc>
     1dc:	83 c4 10             	add    esp,0x10
     1df:	c7 45 cc 00 00 00 00 	mov    DWORD PTR [ebp-0x34],0x0
     1e6:	eb 43                	jmp    22b <code+0x22b>
     1e8:	8b 45 cc             	mov    eax,DWORD PTR [ebp-0x34]
     1eb:	0f be c0             	movsx  eax,al
     1ee:	83 ec 08             	sub    esp,0x8
     1f1:	50                   	push   eax
     1f2:	6a 00                	push   0x0
     1f4:	e8 32 20 00 00       	call   222b <code+0x222b>
     1f9:	83 c4 10             	add    esp,0x10
     1fc:	b9 e0 55 00 00       	mov    ecx,0x55e0
     201:	8b 55 cc             	mov    edx,DWORD PTR [ebp-0x34]
     204:	89 d0                	mov    eax,edx
     206:	c1 e0 03             	shl    eax,0x3
     209:	01 d0                	add    eax,edx
     20b:	8d 14 c5 00 00 00 00 	lea    edx,[eax*8+0x0]
     212:	01 d0                	add    eax,edx
     214:	8d 04 01             	lea    eax,[ecx+eax*1]
     217:	83 ec 08             	sub    esp,0x8
     21a:	50                   	push   eax
     21b:	68 c4 32 00 00       	push   0x32c4
     220:	e8 32 30 00 00       	call   3257 <code+0x3257>
     225:	83 c4 10             	add    esp,0x10
     228:	ff 45 cc             	inc    DWORD PTR [ebp-0x34]
     22b:	a1 a4 50 00 00       	mov    eax,ds:0x50a4
     230:	40                   	inc    eax
     231:	3b 45 cc             	cmp    eax,DWORD PTR [ebp-0x34]
     234:	7f b2                	jg     1e8 <code+0x1e8>
     236:	c6 05 c0 51 00 00 00 	mov    BYTE PTR ds:0x51c0,0x0
     23d:	a0 c0 51 00 00       	mov    al,ds:0x51c0
     242:	a2 a0 50 00 00       	mov    ds:0x50a0,al
     247:	83 ec 08             	sub    esp,0x8
     24a:	6a 00                	push   0x0
     24c:	6a 00                	push   0x0
     24e:	e8 d8 1f 00 00       	call   222b <code+0x222b>
     253:	83 c4 10             	add    esp,0x10
     256:	e8 b2 0a 00 00       	call   d0d <code+0xd0d>
     25b:	83 ec 08             	sub    esp,0x8
     25e:	6a 17                	push   0x17
     260:	6a 00                	push   0x0
     262:	e8 c4 1f 00 00       	call   222b <code+0x222b>
     267:	83 c4 10             	add    esp,0x10
     26a:	83 ec 0c             	sub    esp,0xc
     26d:	68 c7 32 00 00       	push   0x32c7
     272:	e8 e0 2f 00 00       	call   3257 <code+0x3257>
     277:	83 c4 10             	add    esp,0x10
     27a:	a0 c0 51 00 00       	mov    al,ds:0x51c0
     27f:	0f be d0             	movsx  edx,al
     282:	a0 a0 50 00 00       	mov    al,ds:0x50a0
     287:	0f be c0             	movsx  eax,al
     28a:	83 ec 08             	sub    esp,0x8
     28d:	52                   	push   edx
     28e:	50                   	push   eax
     28f:	e8 97 1f 00 00       	call   222b <code+0x222b>
     294:	83 c4 10             	add    esp,0x10
     297:	e8 ec 23 00 00       	call   2688 <code+0x2688>
     29c:	88 45 c7             	mov    BYTE PTR [ebp-0x39],al
     29f:	80 7d c7 00          	cmp    BYTE PTR [ebp-0x39],0x0
     2a3:	75 05                	jne    2aa <code+0x2aa>
     2a5:	e9 1d 0a 00 00       	jmp    cc7 <code+0xcc7>
     2aa:	0f b6 45 c7          	movzx  eax,BYTE PTR [ebp-0x39]
     2ae:	83 f8 41             	cmp    eax,0x41
     2b1:	74 76                	je     329 <code+0x329>
     2b3:	83 f8 41             	cmp    eax,0x41
     2b6:	7f 2f                	jg     2e7 <code+0x2e7>
     2b8:	83 f8 08             	cmp    eax,0x8
     2bb:	0f 84 88 01 00 00    	je     449 <code+0x449>
     2c1:	83 f8 08             	cmp    eax,0x8
     2c4:	7f 0e                	jg     2d4 <code+0x2d4>
     2c6:	83 f8 03             	cmp    eax,0x3
     2c9:	0f 84 e3 00 00 00    	je     3b2 <code+0x3b2>
     2cf:	e9 67 07 00 00       	jmp    a3b <code+0xa3b>
     2d4:	83 f8 0a             	cmp    eax,0xa
     2d7:	0f 84 1a 07 00 00    	je     9f7 <code+0x9f7>
     2dd:	83 f8 1b             	cmp    eax,0x1b
     2e0:	74 5b                	je     33d <code+0x33d>
     2e2:	e9 54 07 00 00       	jmp    a3b <code+0xa3b>
     2e7:	3d c0 00 00 00       	cmp    eax,0xc0
     2ec:	0f 84 c4 05 00 00    	je     8b6 <code+0x8b6>
     2f2:	3d c0 00 00 00       	cmp    eax,0xc0
     2f7:	7f 15                	jg     30e <code+0x30e>
     2f9:	83 f8 59             	cmp    eax,0x59
     2fc:	74 35                	je     333 <code+0x333>
     2fe:	3d bf 00 00 00       	cmp    eax,0xbf
     303:	0f 84 73 04 00 00    	je     77c <code+0x77c>
     309:	e9 2d 07 00 00       	jmp    a3b <code+0xa3b>
     30e:	3d c1 00 00 00       	cmp    eax,0xc1
     313:	0f 84 aa 02 00 00    	je     5c3 <code+0x5c3>
     319:	3d c2 00 00 00       	cmp    eax,0xc2
     31e:	0f 84 64 03 00 00    	je     688 <code+0x688>
     324:	e9 12 07 00 00       	jmp    a3b <code+0xa3b>
     329:	e8 51 1f 00 00       	call   227f <code+0x227f>
     32e:	e9 08 07 00 00       	jmp    a3b <code+0xa3b>
     333:	e8 9b 1f 00 00       	call   22d3 <code+0x22d3>
     338:	e9 fe 06 00 00       	jmp    a3b <code+0xa3b>
     33d:	a0 a0 50 00 00       	mov    al,ds:0x50a0
     342:	0f be d8             	movsx  ebx,al
     345:	b9 e0 55 00 00       	mov    ecx,0x55e0
     34a:	a0 c0 51 00 00       	mov    al,ds:0x51c0
     34f:	0f be d0             	movsx  edx,al
     352:	89 d0                	mov    eax,edx
     354:	c1 e0 03             	shl    eax,0x3
     357:	01 d0                	add    eax,edx
     359:	8d 14 c5 00 00 00 00 	lea    edx,[eax*8+0x0]
     360:	01 d0                	add    eax,edx
     362:	8d 04 01             	lea    eax,[ecx+eax*1]
     365:	83 ec 0c             	sub    esp,0xc
     368:	50                   	push   eax
     369:	e8 2d 1a 00 00       	call   1d9b <code+0x1d9b>
     36e:	83 c4 10             	add    esp,0x10
     371:	39 c3                	cmp    ebx,eax
     373:	75 14                	jne    389 <code+0x389>
     375:	a0 a0 50 00 00       	mov    al,ds:0x50a0
     37a:	84 c0                	test   al,al
     37c:	7e 0b                	jle    389 <code+0x389>
     37e:	a0 a0 50 00 00       	mov    al,ds:0x50a0
     383:	48                   	dec    eax
     384:	a2 a0 50 00 00       	mov    ds:0x50a0,al
     389:	e8 7f 09 00 00       	call   d0d <code+0xd0d>
     38e:	83 ec 08             	sub    esp,0x8
     391:	6a 17                	push   0x17
     393:	6a 00                	push   0x0
     395:	e8 91 1e 00 00       	call   222b <code+0x222b>
     39a:	83 c4 10             	add    esp,0x10
     39d:	83 ec 0c             	sub    esp,0xc
     3a0:	68 c7 32 00 00       	push   0x32c7
     3a5:	e8 ad 2e 00 00       	call   3257 <code+0x3257>
     3aa:	83 c4 10             	add    esp,0x10
     3ad:	e9 89 06 00 00       	jmp    a3b <code+0xa3b>
     3b2:	83 ec 08             	sub    esp,0x8
     3b5:	6a 17                	push   0x17
     3b7:	6a 00                	push   0x0
     3b9:	e8 6d 1e 00 00       	call   222b <code+0x222b>
     3be:	83 c4 10             	add    esp,0x10
     3c1:	83 ec 0c             	sub    esp,0xc
     3c4:	68 d4 32 00 00       	push   0x32d4
     3c9:	e8 89 2e 00 00       	call   3257 <code+0x3257>
     3ce:	83 c4 10             	add    esp,0x10
     3d1:	c7 45 cc 00 00 00 00 	mov    DWORD PTR [ebp-0x34],0x0
     3d8:	eb 57                	jmp    431 <code+0x431>
     3da:	b9 e0 55 00 00       	mov    ecx,0x55e0
     3df:	8b 55 cc             	mov    edx,DWORD PTR [ebp-0x34]
     3e2:	89 d0                	mov    eax,edx
     3e4:	c1 e0 03             	shl    eax,0x3
     3e7:	01 d0                	add    eax,edx
     3e9:	8d 14 c5 00 00 00 00 	lea    edx,[eax*8+0x0]
     3f0:	01 d0                	add    eax,edx
     3f2:	8d 1c 01             	lea    ebx,[ecx+eax*1]
     3f5:	b9 e0 55 00 00       	mov    ecx,0x55e0
     3fa:	8b 55 cc             	mov    edx,DWORD PTR [ebp-0x34]
     3fd:	89 d0                	mov    eax,edx
     3ff:	c1 e0 03             	shl    eax,0x3
     402:	01 d0                	add    eax,edx
     404:	8d 14 c5 00 00 00 00 	lea    edx,[eax*8+0x0]
     40b:	01 d0                	add    eax,edx
     40d:	8d 04 01             	lea    eax,[ecx+eax*1]
     410:	83 ec 0c             	sub    esp,0xc
     413:	50                   	push   eax
     414:	e8 82 19 00 00       	call   1d9b <code+0x1d9b>
     419:	83 c4 10             	add    esp,0x10
     41c:	53                   	push   ebx
     41d:	50                   	push   eax
     41e:	ff 75 cc             	push   DWORD PTR [ebp-0x34]
     421:	68 d6 32 00 00       	push   0x32d6
     426:	e8 2c 2e 00 00       	call   3257 <code+0x3257>
     42b:	83 c4 10             	add    esp,0x10
     42e:	ff 45 cc             	inc    DWORD PTR [ebp-0x34]
     431:	a1 a4 50 00 00       	mov    eax,ds:0x50a4
     436:	40                   	inc    eax
     437:	3b 45 cc             	cmp    eax,DWORD PTR [ebp-0x34]
     43a:	7f 9e                	jg     3da <code+0x3da>
     43c:	83 ec 0c             	sub    esp,0xc
     43f:	6a 00                	push   0x0
     441:	e8 be 1c 00 00       	call   2104 <code+0x2104>
     446:	83 c4 10             	add    esp,0x10
     449:	a0 a0 50 00 00       	mov    al,ds:0x50a0
     44e:	84 c0                	test   al,al
     450:	75 0d                	jne    45f <code+0x45f>
     452:	a0 c0 51 00 00       	mov    al,ds:0x51c0
     457:	84 c0                	test   al,al
     459:	0f 84 d2 05 00 00    	je     a31 <code+0xa31>
     45f:	a0 a0 50 00 00       	mov    al,ds:0x50a0
     464:	84 c0                	test   al,al
     466:	75 1e                	jne    486 <code+0x486>
     468:	e8 7f 16 00 00       	call   1aec <code+0x1aec>
     46d:	a0 c0 51 00 00       	mov    al,ds:0x51c0
     472:	0f be c0             	movsx  eax,al
     475:	83 ec 0c             	sub    esp,0xc
     478:	50                   	push   eax
     479:	e8 14 13 00 00       	call   1792 <code+0x1792>
     47e:	83 c4 10             	add    esp,0x10
     481:	e9 b5 05 00 00       	jmp    a3b <code+0xa3b>
     486:	a0 a0 50 00 00       	mov    al,ds:0x50a0
     48b:	0f be c0             	movsx  eax,al
     48e:	48                   	dec    eax
     48f:	89 45 cc             	mov    DWORD PTR [ebp-0x34],eax
     492:	eb 4e                	jmp    4e2 <code+0x4e2>
     494:	a0 c0 51 00 00       	mov    al,ds:0x51c0
     499:	0f be c8             	movsx  ecx,al
     49c:	8b 5d cc             	mov    ebx,DWORD PTR [ebp-0x34]
     49f:	a0 c0 51 00 00       	mov    al,ds:0x51c0
     4a4:	0f be d0             	movsx  edx,al
     4a7:	8b 45 cc             	mov    eax,DWORD PTR [ebp-0x34]
     4aa:	8d 70 01             	lea    esi,[eax+0x1]
     4ad:	89 d0                	mov    eax,edx
     4af:	c1 e0 03             	shl    eax,0x3
     4b2:	01 d0                	add    eax,edx
     4b4:	8d 14 c5 00 00 00 00 	lea    edx,[eax*8+0x0]
     4bb:	01 d0                	add    eax,edx
     4bd:	01 f0                	add    eax,esi
     4bf:	05 e0 55 00 00       	add    eax,0x55e0
     4c4:	8a 10                	mov    dl,BYTE PTR [eax]
     4c6:	89 c8                	mov    eax,ecx
     4c8:	c1 e0 03             	shl    eax,0x3
     4cb:	01 c8                	add    eax,ecx
     4cd:	8d 0c c5 00 00 00 00 	lea    ecx,[eax*8+0x0]
     4d4:	01 c8                	add    eax,ecx
     4d6:	01 d8                	add    eax,ebx
     4d8:	05 e0 55 00 00       	add    eax,0x55e0
     4dd:	88 10                	mov    BYTE PTR [eax],dl
     4df:	ff 45 cc             	inc    DWORD PTR [ebp-0x34]
     4e2:	b9 e0 55 00 00       	mov    ecx,0x55e0
     4e7:	a0 c0 51 00 00       	mov    al,ds:0x51c0
     4ec:	0f be d0             	movsx  edx,al
     4ef:	89 d0                	mov    eax,edx
     4f1:	c1 e0 03             	shl    eax,0x3
     4f4:	01 d0                	add    eax,edx
     4f6:	8d 14 c5 00 00 00 00 	lea    edx,[eax*8+0x0]
     4fd:	01 d0                	add    eax,edx
     4ff:	8d 04 01             	lea    eax,[ecx+eax*1]
     502:	83 ec 0c             	sub    esp,0xc
     505:	50                   	push   eax
     506:	e8 90 18 00 00       	call   1d9b <code+0x1d9b>
     50b:	83 c4 10             	add    esp,0x10
     50e:	40                   	inc    eax
     50f:	3b 45 cc             	cmp    eax,DWORD PTR [ebp-0x34]
     512:	7f 80                	jg     494 <code+0x494>
     514:	a0 c0 51 00 00       	mov    al,ds:0x51c0
     519:	0f be c0             	movsx  eax,al
     51c:	83 ec 0c             	sub    esp,0xc
     51f:	50                   	push   eax
     520:	e8 6d 12 00 00       	call   1792 <code+0x1792>
     525:	83 c4 10             	add    esp,0x10
     528:	a0 a0 50 00 00       	mov    al,ds:0x50a0
     52d:	48                   	dec    eax
     52e:	a2 a0 50 00 00       	mov    ds:0x50a0,al
     533:	83 ec 08             	sub    esp,0x8
     536:	6a 17                	push   0x17
     538:	6a 32                	push   0x32
     53a:	e8 ec 1c 00 00       	call   222b <code+0x222b>
     53f:	83 c4 10             	add    esp,0x10
     542:	a0 c0 51 00 00       	mov    al,ds:0x51c0
     547:	0f be d0             	movsx  edx,al
     54a:	a0 a0 50 00 00       	mov    al,ds:0x50a0
     54f:	0f be c8             	movsx  ecx,al
     552:	89 d0                	mov    eax,edx
     554:	c1 e0 03             	shl    eax,0x3
     557:	01 d0                	add    eax,edx
     559:	8d 14 c5 00 00 00 00 	lea    edx,[eax*8+0x0]
     560:	01 d0                	add    eax,edx
     562:	01 c8                	add    eax,ecx
     564:	05 e0 55 00 00       	add    eax,0x55e0
     569:	8a 00                	mov    al,BYTE PTR [eax]
     56b:	0f b6 d8             	movzx  ebx,al
     56e:	a0 c0 51 00 00       	mov    al,ds:0x51c0
     573:	0f be d0             	movsx  edx,al
     576:	a0 a0 50 00 00       	mov    al,ds:0x50a0
     57b:	0f be c8             	movsx  ecx,al
     57e:	89 d0                	mov    eax,edx
     580:	c1 e0 03             	shl    eax,0x3
     583:	01 d0                	add    eax,edx
     585:	8d 14 c5 00 00 00 00 	lea    edx,[eax*8+0x0]
     58c:	01 d0                	add    eax,edx
     58e:	01 c8                	add    eax,ecx
     590:	05 e0 55 00 00       	add    eax,0x55e0
     595:	8a 00                	mov    al,BYTE PTR [eax]
     597:	0f b6 c8             	movzx  ecx,al
     59a:	a0 a0 50 00 00       	mov    al,ds:0x50a0
     59f:	0f be d0             	movsx  edx,al
     5a2:	a0 c0 51 00 00       	mov    al,ds:0x51c0
     5a7:	0f be c0             	movsx  eax,al
     5aa:	83 ec 0c             	sub    esp,0xc
     5ad:	53                   	push   ebx
     5ae:	51                   	push   ecx
     5af:	52                   	push   edx
     5b0:	50                   	push   eax
     5b1:	68 e4 32 00 00       	push   0x32e4
     5b6:	e8 9c 2c 00 00       	call   3257 <code+0x3257>
     5bb:	83 c4 20             	add    esp,0x20
     5be:	e9 78 04 00 00       	jmp    a3b <code+0xa3b>
     5c3:	a0 a0 50 00 00       	mov    al,ds:0x50a0
     5c8:	84 c0                	test   al,al
     5ca:	0f 8e 64 04 00 00    	jle    a34 <code+0xa34>
     5d0:	a0 a0 50 00 00       	mov    al,ds:0x50a0
     5d5:	48                   	dec    eax
     5d6:	a2 a0 50 00 00       	mov    ds:0x50a0,al
     5db:	83 ec 08             	sub    esp,0x8
     5de:	6a 17                	push   0x17
     5e0:	6a 32                	push   0x32
     5e2:	e8 44 1c 00 00       	call   222b <code+0x222b>
     5e7:	83 c4 10             	add    esp,0x10
     5ea:	a0 c0 51 00 00       	mov    al,ds:0x51c0
     5ef:	0f be d0             	movsx  edx,al
     5f2:	a0 a0 50 00 00       	mov    al,ds:0x50a0
     5f7:	0f be c8             	movsx  ecx,al
     5fa:	89 d0                	mov    eax,edx
     5fc:	c1 e0 03             	shl    eax,0x3
     5ff:	01 d0                	add    eax,edx
     601:	8d 14 c5 00 00 00 00 	lea    edx,[eax*8+0x0]
     608:	01 d0                	add    eax,edx
     60a:	01 c8                	add    eax,ecx
     60c:	05 e0 55 00 00       	add    eax,0x55e0
     611:	8a 00                	mov    al,BYTE PTR [eax]
     613:	0f b6 d8             	movzx  ebx,al
     616:	a0 c0 51 00 00       	mov    al,ds:0x51c0
     61b:	0f be d0             	movsx  edx,al
     61e:	a0 a0 50 00 00       	mov    al,ds:0x50a0
     623:	0f be c8             	movsx  ecx,al
     626:	89 d0                	mov    eax,edx
     628:	c1 e0 03             	shl    eax,0x3
     62b:	01 d0                	add    eax,edx
     62d:	8d 14 c5 00 00 00 00 	lea    edx,[eax*8+0x0]
     634:	01 d0                	add    eax,edx
     636:	01 c8                	add    eax,ecx
     638:	05 e0 55 00 00       	add    eax,0x55e0
     63d:	8a 00                	mov    al,BYTE PTR [eax]
     63f:	0f b6 c8             	movzx  ecx,al
     642:	a0 a0 50 00 00       	mov    al,ds:0x50a0
     647:	0f be d0             	movsx  edx,al
     64a:	a0 c0 51 00 00       	mov    al,ds:0x51c0
     64f:	0f be c0             	movsx  eax,al
     652:	83 ec 0c             	sub    esp,0xc
     655:	53                   	push   ebx
     656:	51                   	push   ecx
     657:	52                   	push   edx
     658:	50                   	push   eax
     659:	68 e4 32 00 00       	push   0x32e4
     65e:	e8 f4 2b 00 00       	call   3257 <code+0x3257>
     663:	83 c4 20             	add    esp,0x20
     666:	a0 c0 51 00 00       	mov    al,ds:0x51c0
     66b:	0f be d0             	movsx  edx,al
     66e:	a0 a0 50 00 00       	mov    al,ds:0x50a0
     673:	0f be c0             	movsx  eax,al
     676:	83 ec 08             	sub    esp,0x8
     679:	52                   	push   edx
     67a:	50                   	push   eax
     67b:	e8 ab 1b 00 00       	call   222b <code+0x222b>
     680:	83 c4 10             	add    esp,0x10
     683:	e9 b3 03 00 00       	jmp    a3b <code+0xa3b>
     688:	a0 a0 50 00 00       	mov    al,ds:0x50a0
     68d:	0f be d8             	movsx  ebx,al
     690:	b9 e0 55 00 00       	mov    ecx,0x55e0
     695:	a0 c0 51 00 00       	mov    al,ds:0x51c0
     69a:	0f be d0             	movsx  edx,al
     69d:	89 d0                	mov    eax,edx
     69f:	c1 e0 03             	shl    eax,0x3
     6a2:	01 d0                	add    eax,edx
     6a4:	8d 14 c5 00 00 00 00 	lea    edx,[eax*8+0x0]
     6ab:	01 d0                	add    eax,edx
     6ad:	8d 04 01             	lea    eax,[ecx+eax*1]
     6b0:	83 ec 0c             	sub    esp,0xc
     6b3:	50                   	push   eax
     6b4:	e8 e2 16 00 00       	call   1d9b <code+0x1d9b>
     6b9:	83 c4 10             	add    esp,0x10
     6bc:	39 c3                	cmp    ebx,eax
     6be:	0f 8d 73 03 00 00    	jge    a37 <code+0xa37>
     6c4:	a0 a0 50 00 00       	mov    al,ds:0x50a0
     6c9:	40                   	inc    eax
     6ca:	a2 a0 50 00 00       	mov    ds:0x50a0,al
     6cf:	83 ec 08             	sub    esp,0x8
     6d2:	6a 17                	push   0x17
     6d4:	6a 32                	push   0x32
     6d6:	e8 50 1b 00 00       	call   222b <code+0x222b>
     6db:	83 c4 10             	add    esp,0x10
     6de:	a0 c0 51 00 00       	mov    al,ds:0x51c0
     6e3:	0f be d0             	movsx  edx,al
     6e6:	a0 a0 50 00 00       	mov    al,ds:0x50a0
     6eb:	0f be c8             	movsx  ecx,al
     6ee:	89 d0                	mov    eax,edx
     6f0:	c1 e0 03             	shl    eax,0x3
     6f3:	01 d0                	add    eax,edx
     6f5:	8d 14 c5 00 00 00 00 	lea    edx,[eax*8+0x0]
     6fc:	01 d0                	add    eax,edx
     6fe:	01 c8                	add    eax,ecx
     700:	05 e0 55 00 00       	add    eax,0x55e0
     705:	8a 00                	mov    al,BYTE PTR [eax]
     707:	0f b6 d8             	movzx  ebx,al
     70a:	a0 c0 51 00 00       	mov    al,ds:0x51c0
     70f:	0f be d0             	movsx  edx,al
     712:	a0 a0 50 00 00       	mov    al,ds:0x50a0
     717:	0f be c8             	movsx  ecx,al
     71a:	89 d0                	mov    eax,edx
     71c:	c1 e0 03             	shl    eax,0x3
     71f:	01 d0                	add    eax,edx
     721:	8d 14 c5 00 00 00 00 	lea    edx,[eax*8+0x0]
     728:	01 d0                	add    eax,edx
     72a:	01 c8                	add    eax,ecx
     72c:	05 e0 55 00 00       	add    eax,0x55e0
     731:	8a 00                	mov    al,BYTE PTR [eax]
     733:	0f b6 c8             	movzx  ecx,al
     736:	a0 a0 50 00 00       	mov    al,ds:0x50a0
     73b:	0f be d0             	movsx  edx,al
     73e:	a0 c0 51 00 00       	mov    al,ds:0x51c0
     743:	0f be c0             	movsx  eax,al
     746:	83 ec 0c             	sub    esp,0xc
     749:	53                   	push   ebx
     74a:	51                   	push   ecx
     74b:	52                   	push   edx
     74c:	50                   	push   eax
     74d:	68 e4 32 00 00       	push   0x32e4
     752:	e8 00 2b 00 00       	call   3257 <code+0x3257>
     757:	83 c4 20             	add    esp,0x20
     75a:	a0 c0 51 00 00       	mov    al,ds:0x51c0
     75f:	0f be d0             	movsx  edx,al
     762:	a0 a0 50 00 00       	mov    al,ds:0x50a0
     767:	0f be c0             	movsx  eax,al
     76a:	83 ec 08             	sub    esp,0x8
     76d:	52                   	push   edx
     76e:	50                   	push   eax
     76f:	e8 b7 1a 00 00       	call   222b <code+0x222b>
     774:	83 c4 10             	add    esp,0x10
     777:	e9 bf 02 00 00       	jmp    a3b <code+0xa3b>
     77c:	a0 c0 51 00 00       	mov    al,ds:0x51c0
     781:	84 c0                	test   al,al
     783:	7e 0b                	jle    790 <code+0x790>
     785:	a0 c0 51 00 00       	mov    al,ds:0x51c0
     78a:	48                   	dec    eax
     78b:	a2 c0 51 00 00       	mov    ds:0x51c0,al
     790:	a0 a0 50 00 00       	mov    al,ds:0x50a0
     795:	0f be d8             	movsx  ebx,al
     798:	b9 e0 55 00 00       	mov    ecx,0x55e0
     79d:	a0 c0 51 00 00       	mov    al,ds:0x51c0
     7a2:	0f be d0             	movsx  edx,al
     7a5:	89 d0                	mov    eax,edx
     7a7:	c1 e0 03             	shl    eax,0x3
     7aa:	01 d0                	add    eax,edx
     7ac:	8d 14 c5 00 00 00 00 	lea    edx,[eax*8+0x0]
     7b3:	01 d0                	add    eax,edx
     7b5:	8d 04 01             	lea    eax,[ecx+eax*1]
     7b8:	83 ec 0c             	sub    esp,0xc
     7bb:	50                   	push   eax
     7bc:	e8 da 15 00 00       	call   1d9b <code+0x1d9b>
     7c1:	83 c4 10             	add    esp,0x10
     7c4:	48                   	dec    eax
     7c5:	39 c3                	cmp    ebx,eax
     7c7:	7e 40                	jle    809 <code+0x809>
     7c9:	b9 e0 55 00 00       	mov    ecx,0x55e0
     7ce:	a0 c0 51 00 00       	mov    al,ds:0x51c0
     7d3:	0f be d0             	movsx  edx,al
     7d6:	89 d0                	mov    eax,edx
     7d8:	c1 e0 03             	shl    eax,0x3
     7db:	01 d0                	add    eax,edx
     7dd:	8d 14 c5 00 00 00 00 	lea    edx,[eax*8+0x0]
     7e4:	01 d0                	add    eax,edx
     7e6:	8d 04 01             	lea    eax,[ecx+eax*1]
     7e9:	83 ec 0c             	sub    esp,0xc
     7ec:	50                   	push   eax
     7ed:	e8 a9 15 00 00       	call   1d9b <code+0x1d9b>
     7f2:	83 c4 10             	add    esp,0x10
     7f5:	48                   	dec    eax
     7f6:	83 ec 08             	sub    esp,0x8
     7f9:	50                   	push   eax
     7fa:	6a 00                	push   0x0
     7fc:	e8 7c 0f 00 00       	call   177d <code+0x177d>
     801:	83 c4 10             	add    esp,0x10
     804:	a2 a0 50 00 00       	mov    ds:0x50a0,al
     809:	83 ec 08             	sub    esp,0x8
     80c:	6a 17                	push   0x17
     80e:	6a 32                	push   0x32
     810:	e8 16 1a 00 00       	call   222b <code+0x222b>
     815:	83 c4 10             	add    esp,0x10
     818:	a0 c0 51 00 00       	mov    al,ds:0x51c0
     81d:	0f be d0             	movsx  edx,al
     820:	a0 a0 50 00 00       	mov    al,ds:0x50a0
     825:	0f be c8             	movsx  ecx,al
     828:	89 d0                	mov    eax,edx
     82a:	c1 e0 03             	shl    eax,0x3
     82d:	01 d0                	add    eax,edx
     82f:	8d 14 c5 00 00 00 00 	lea    edx,[eax*8+0x0]
     836:	01 d0                	add    eax,edx
     838:	01 c8                	add    eax,ecx
     83a:	05 e0 55 00 00       	add    eax,0x55e0
     83f:	8a 00                	mov    al,BYTE PTR [eax]
     841:	0f b6 d8             	movzx  ebx,al
     844:	a0 c0 51 00 00       	mov    al,ds:0x51c0
     849:	0f be d0             	movsx  edx,al
     84c:	a0 a0 50 00 00       	mov    al,ds:0x50a0
     851:	0f be c8             	movsx  ecx,al
     854:	89 d0                	mov    eax,edx
     856:	c1 e0 03             	shl    eax,0x3
     859:	01 d0                	add    eax,edx
     85b:	8d 14 c5 00 00 00 00 	lea    edx,[eax*8+0x0]
     862:	01 d0                	add    eax,edx
     864:	01 c8                	add    eax,ecx
     866:	05 e0 55 00 00       	add    eax,0x55e0
     86b:	8a 00                	mov    al,BYTE PTR [eax]
     86d:	0f b6 c8             	movzx  ecx,al
     870:	a0 a0 50 00 00       	mov    al,ds:0x50a0
     875:	0f be d0             	movsx  edx,al
     878:	a0 c0 51 00 00       	mov    al,ds:0x51c0
     87d:	0f be c0             	movsx  eax,al
     880:	83 ec 0c             	sub    esp,0xc
     883:	53                   	push   ebx
     884:	51                   	push   ecx
     885:	52                   	push   edx
     886:	50                   	push   eax
     887:	68 e4 32 00 00       	push   0x32e4
     88c:	e8 c6 29 00 00       	call   3257 <code+0x3257>
     891:	83 c4 20             	add    esp,0x20
     894:	a0 c0 51 00 00       	mov    al,ds:0x51c0
     899:	0f be d0             	movsx  edx,al
     89c:	a0 a0 50 00 00       	mov    al,ds:0x50a0
     8a1:	0f be c0             	movsx  eax,al
     8a4:	83 ec 08             	sub    esp,0x8
     8a7:	52                   	push   edx
     8a8:	50                   	push   eax
     8a9:	e8 7d 19 00 00       	call   222b <code+0x222b>
     8ae:	83 c4 10             	add    esp,0x10
     8b1:	e9 85 01 00 00       	jmp    a3b <code+0xa3b>
     8b6:	a0 c0 51 00 00       	mov    al,ds:0x51c0
     8bb:	0f be c0             	movsx  eax,al
     8be:	8b 15 a4 50 00 00    	mov    edx,DWORD PTR ds:0x50a4
     8c4:	4a                   	dec    edx
     8c5:	39 d0                	cmp    eax,edx
     8c7:	7d 0b                	jge    8d4 <code+0x8d4>
     8c9:	a0 c0 51 00 00       	mov    al,ds:0x51c0
     8ce:	40                   	inc    eax
     8cf:	a2 c0 51 00 00       	mov    ds:0x51c0,al
     8d4:	a0 a0 50 00 00       	mov    al,ds:0x50a0
     8d9:	0f be d8             	movsx  ebx,al
     8dc:	b9 e0 55 00 00       	mov    ecx,0x55e0
     8e1:	a0 c0 51 00 00       	mov    al,ds:0x51c0
     8e6:	0f be d0             	movsx  edx,al
     8e9:	89 d0                	mov    eax,edx
     8eb:	c1 e0 03             	shl    eax,0x3
     8ee:	01 d0                	add    eax,edx
     8f0:	8d 14 c5 00 00 00 00 	lea    edx,[eax*8+0x0]
     8f7:	01 d0                	add    eax,edx
     8f9:	8d 04 01             	lea    eax,[ecx+eax*1]
     8fc:	83 ec 0c             	sub    esp,0xc
     8ff:	50                   	push   eax
     900:	e8 96 14 00 00       	call   1d9b <code+0x1d9b>
     905:	83 c4 10             	add    esp,0x10
     908:	48                   	dec    eax
     909:	39 c3                	cmp    ebx,eax
     90b:	7e 40                	jle    94d <code+0x94d>
     90d:	b9 e0 55 00 00       	mov    ecx,0x55e0
     912:	a0 c0 51 00 00       	mov    al,ds:0x51c0
     917:	0f be d0             	movsx  edx,al
     91a:	89 d0                	mov    eax,edx
     91c:	c1 e0 03             	shl    eax,0x3
     91f:	01 d0                	add    eax,edx
     921:	8d 14 c5 00 00 00 00 	lea    edx,[eax*8+0x0]
     928:	01 d0                	add    eax,edx
     92a:	8d 04 01             	lea    eax,[ecx+eax*1]
     92d:	83 ec 0c             	sub    esp,0xc
     930:	50                   	push   eax
     931:	e8 65 14 00 00       	call   1d9b <code+0x1d9b>
     936:	83 c4 10             	add    esp,0x10
     939:	48                   	dec    eax
     93a:	83 ec 08             	sub    esp,0x8
     93d:	50                   	push   eax
     93e:	6a 00                	push   0x0
     940:	e8 38 0e 00 00       	call   177d <code+0x177d>
     945:	83 c4 10             	add    esp,0x10
     948:	a2 a0 50 00 00       	mov    ds:0x50a0,al
     94d:	83 ec 08             	sub    esp,0x8
     950:	6a 17                	push   0x17
     952:	6a 32                	push   0x32
     954:	e8 d2 18 00 00       	call   222b <code+0x222b>
     959:	83 c4 10             	add    esp,0x10
     95c:	a0 c0 51 00 00       	mov    al,ds:0x51c0
     961:	0f be d0             	movsx  edx,al
     964:	a0 a0 50 00 00       	mov    al,ds:0x50a0
     969:	0f be c8             	movsx  ecx,al
     96c:	89 d0                	mov    eax,edx
     96e:	c1 e0 03             	shl    eax,0x3
     971:	01 d0                	add    eax,edx
     973:	8d 14 c5 00 00 00 00 	lea    edx,[eax*8+0x0]
     97a:	01 d0                	add    eax,edx
     97c:	01 c8                	add    eax,ecx
     97e:	05 e0 55 00 00       	add    eax,0x55e0
     983:	8a 00                	mov    al,BYTE PTR [eax]
     985:	0f b6 d8             	movzx  ebx,al
     988:	a0 c0 51 00 00       	mov    al,ds:0x51c0
     98d:	0f be d0             	movsx  edx,al
     990:	a0 a0 50 00 00       	mov    al,ds:0x50a0
     995:	0f be c8             	movsx  ecx,al
     998:	89 d0                	mov    eax,edx
     99a:	c1 e0 03             	shl    eax,0x3
     99d:	01 d0                	add    eax,edx
     99f:	8d 14 c5 00 00 00 00 	lea    edx,[eax*8+0x0]
     9a6:	01 d0                	add    eax,edx
     9a8:	01 c8                	add    eax,ecx
     9aa:	05 e0 55 00 00       	add    eax,0x55e0
     9af:	8a 00                	mov    al,BYTE PTR [eax]
     9b1:	0f b6 c8             	movzx  ecx,al
     9b4:	a0 a0 50 00 00       	mov    al,ds:0x50a0
     9b9:	0f be d0             	movsx  edx,al
     9bc:	a0 c0 51 00 00       	mov    al,ds:0x51c0
     9c1:	0f be c0             	movsx  eax,al
     9c4:	83 ec 0c             	sub    esp,0xc
     9c7:	53                   	push   ebx
     9c8:	51                   	push   ecx
     9c9:	52                   	push   edx
     9ca:	50                   	push   eax
     9cb:	68 e4 32 00 00       	push   0x32e4
     9d0:	e8 82 28 00 00       	call   3257 <code+0x3257>
     9d5:	83 c4 20             	add    esp,0x20
     9d8:	a0 c0 51 00 00       	mov    al,ds:0x51c0
     9dd:	0f be d0             	movsx  edx,al
     9e0:	a0 a0 50 00 00       	mov    al,ds:0x50a0
     9e5:	0f be c0             	movsx  eax,al
     9e8:	83 ec 08             	sub    esp,0x8
     9eb:	52                   	push   edx
     9ec:	50                   	push   eax
     9ed:	e8 39 18 00 00       	call   222b <code+0x222b>
     9f2:	83 c4 10             	add    esp,0x10
     9f5:	eb 44                	jmp    a3b <code+0xa3b>
     9f7:	a1 a4 50 00 00       	mov    eax,ds:0x50a4
     9fc:	83 f8 17             	cmp    eax,0x17
     9ff:	74 39                	je     a3a <code+0xa3a>
     a01:	e8 b7 0f 00 00       	call   19bd <code+0x19bd>
     a06:	a0 c0 51 00 00       	mov    al,ds:0x51c0
     a0b:	0f be c0             	movsx  eax,al
     a0e:	48                   	dec    eax
     a0f:	89 45 cc             	mov    DWORD PTR [ebp-0x34],eax
     a12:	eb 11                	jmp    a25 <code+0xa25>
     a14:	83 ec 0c             	sub    esp,0xc
     a17:	ff 75 cc             	push   DWORD PTR [ebp-0x34]
     a1a:	e8 73 0d 00 00       	call   1792 <code+0x1792>
     a1f:	83 c4 10             	add    esp,0x10
     a22:	ff 45 cc             	inc    DWORD PTR [ebp-0x34]
     a25:	a1 a4 50 00 00       	mov    eax,ds:0x50a4
     a2a:	39 45 cc             	cmp    DWORD PTR [ebp-0x34],eax
     a2d:	7c e5                	jl     a14 <code+0xa14>
     a2f:	eb 0a                	jmp    a3b <code+0xa3b>
     a31:	90                   	nop
     a32:	eb 07                	jmp    a3b <code+0xa3b>
     a34:	90                   	nop
     a35:	eb 04                	jmp    a3b <code+0xa3b>
     a37:	90                   	nop
     a38:	eb 01                	jmp    a3b <code+0xa3b>
     a3a:	90                   	nop
     a3b:	80 7d c7 1f          	cmp    BYTE PTR [ebp-0x39],0x1f
     a3f:	0f 86 fc 01 00 00    	jbe    c41 <code+0xc41>
     a45:	8a 45 c7             	mov    al,BYTE PTR [ebp-0x39]
     a48:	84 c0                	test   al,al
     a4a:	0f 88 f1 01 00 00    	js     c41 <code+0xc41>
     a50:	a0 a0 50 00 00       	mov    al,ds:0x50a0
     a55:	3c 4f                	cmp    al,0x4f
     a57:	0f 8f e4 01 00 00    	jg     c41 <code+0xc41>
     a5d:	b9 e0 55 00 00       	mov    ecx,0x55e0
     a62:	a0 c0 51 00 00       	mov    al,ds:0x51c0
     a67:	0f be d0             	movsx  edx,al
     a6a:	89 d0                	mov    eax,edx
     a6c:	c1 e0 03             	shl    eax,0x3
     a6f:	01 d0                	add    eax,edx
     a71:	8d 14 c5 00 00 00 00 	lea    edx,[eax*8+0x0]
     a78:	01 d0                	add    eax,edx
     a7a:	8d 04 01             	lea    eax,[ecx+eax*1]
     a7d:	83 ec 0c             	sub    esp,0xc
     a80:	50                   	push   eax
     a81:	e8 15 13 00 00       	call   1d9b <code+0x1d9b>
     a86:	83 c4 10             	add    esp,0x10
     a89:	89 45 e4             	mov    DWORD PTR [ebp-0x1c],eax
     a8c:	83 7d e4 50          	cmp    DWORD PTR [ebp-0x1c],0x50
     a90:	75 05                	jne    a97 <code+0xa97>
     a92:	e9 30 02 00 00       	jmp    cc7 <code+0xcc7>
     a97:	a0 c0 51 00 00       	mov    al,ds:0x51c0
     a9c:	0f be d0             	movsx  edx,al
     a9f:	8b 45 e4             	mov    eax,DWORD PTR [ebp-0x1c]
     aa2:	8d 48 01             	lea    ecx,[eax+0x1]
     aa5:	89 d0                	mov    eax,edx
     aa7:	c1 e0 03             	shl    eax,0x3
     aaa:	01 d0                	add    eax,edx
     aac:	8d 14 c5 00 00 00 00 	lea    edx,[eax*8+0x0]
     ab3:	01 d0                	add    eax,edx
     ab5:	01 c8                	add    eax,ecx
     ab7:	05 e0 55 00 00       	add    eax,0x55e0
     abc:	c6 00 00             	mov    BYTE PTR [eax],0x0
     abf:	8b 45 e4             	mov    eax,DWORD PTR [ebp-0x1c]
     ac2:	89 45 cc             	mov    DWORD PTR [ebp-0x34],eax
     ac5:	eb 4e                	jmp    b15 <code+0xb15>
     ac7:	a0 c0 51 00 00       	mov    al,ds:0x51c0
     acc:	0f be c8             	movsx  ecx,al
     acf:	8b 5d cc             	mov    ebx,DWORD PTR [ebp-0x34]
     ad2:	a0 c0 51 00 00       	mov    al,ds:0x51c0
     ad7:	0f be d0             	movsx  edx,al
     ada:	8b 45 cc             	mov    eax,DWORD PTR [ebp-0x34]
     add:	8d 70 ff             	lea    esi,[eax-0x1]
     ae0:	89 d0                	mov    eax,edx
     ae2:	c1 e0 03             	shl    eax,0x3
     ae5:	01 d0                	add    eax,edx
     ae7:	8d 14 c5 00 00 00 00 	lea    edx,[eax*8+0x0]
     aee:	01 d0                	add    eax,edx
     af0:	01 f0                	add    eax,esi
     af2:	05 e0 55 00 00       	add    eax,0x55e0
     af7:	8a 10                	mov    dl,BYTE PTR [eax]
     af9:	89 c8                	mov    eax,ecx
     afb:	c1 e0 03             	shl    eax,0x3
     afe:	01 c8                	add    eax,ecx
     b00:	8d 0c c5 00 00 00 00 	lea    ecx,[eax*8+0x0]
     b07:	01 c8                	add    eax,ecx
     b09:	01 d8                	add    eax,ebx
     b0b:	05 e0 55 00 00       	add    eax,0x55e0
     b10:	88 10                	mov    BYTE PTR [eax],dl
     b12:	ff 4d cc             	dec    DWORD PTR [ebp-0x34]
     b15:	a0 a0 50 00 00       	mov    al,ds:0x50a0
     b1a:	0f be c0             	movsx  eax,al
     b1d:	3b 45 cc             	cmp    eax,DWORD PTR [ebp-0x34]
     b20:	7c a5                	jl     ac7 <code+0xac7>
     b22:	a0 c0 51 00 00       	mov    al,ds:0x51c0
     b27:	0f be d0             	movsx  edx,al
     b2a:	a0 a0 50 00 00       	mov    al,ds:0x50a0
     b2f:	0f be c8             	movsx  ecx,al
     b32:	89 d0                	mov    eax,edx
     b34:	c1 e0 03             	shl    eax,0x3
     b37:	01 d0                	add    eax,edx
     b39:	8d 14 c5 00 00 00 00 	lea    edx,[eax*8+0x0]
     b40:	01 d0                	add    eax,edx
     b42:	01 c8                	add    eax,ecx
     b44:	8d 90 e0 55 00 00    	lea    edx,[eax+0x55e0]
     b4a:	8a 45 c7             	mov    al,BYTE PTR [ebp-0x39]
     b4d:	88 02                	mov    BYTE PTR [edx],al
     b4f:	a0 c0 51 00 00       	mov    al,ds:0x51c0
     b54:	0f be c0             	movsx  eax,al
     b57:	83 ec 0c             	sub    esp,0xc
     b5a:	50                   	push   eax
     b5b:	e8 32 0c 00 00       	call   1792 <code+0x1792>
     b60:	83 c4 10             	add    esp,0x10
     b63:	a0 a0 50 00 00       	mov    al,ds:0x50a0
     b68:	3c 4e                	cmp    al,0x4e
     b6a:	7f 0d                	jg     b79 <code+0xb79>
     b6c:	a0 a0 50 00 00       	mov    al,ds:0x50a0
     b71:	40                   	inc    eax
     b72:	a2 a0 50 00 00       	mov    ds:0x50a0,al
     b77:	eb 1b                	jmp    b94 <code+0xb94>
     b79:	c6 05 a0 50 00 00 00 	mov    BYTE PTR ds:0x50a0,0x0
     b80:	a0 c0 51 00 00       	mov    al,ds:0x51c0
     b85:	3c 15                	cmp    al,0x15
     b87:	7f 0b                	jg     b94 <code+0xb94>
     b89:	a0 c0 51 00 00       	mov    al,ds:0x51c0
     b8e:	40                   	inc    eax
     b8f:	a2 c0 51 00 00       	mov    ds:0x51c0,al
     b94:	a0 c0 51 00 00       	mov    al,ds:0x51c0
     b99:	0f be d0             	movsx  edx,al
     b9c:	a0 a0 50 00 00       	mov    al,ds:0x50a0
     ba1:	0f be c0             	movsx  eax,al
     ba4:	83 ec 08             	sub    esp,0x8
     ba7:	52                   	push   edx
     ba8:	50                   	push   eax
     ba9:	e8 7d 16 00 00       	call   222b <code+0x222b>
     bae:	83 c4 10             	add    esp,0x10
     bb1:	83 ec 08             	sub    esp,0x8
     bb4:	6a 17                	push   0x17
     bb6:	6a 32                	push   0x32
     bb8:	e8 6e 16 00 00       	call   222b <code+0x222b>
     bbd:	83 c4 10             	add    esp,0x10
     bc0:	a0 c0 51 00 00       	mov    al,ds:0x51c0
     bc5:	0f be d0             	movsx  edx,al
     bc8:	a0 a0 50 00 00       	mov    al,ds:0x50a0
     bcd:	0f be c8             	movsx  ecx,al
     bd0:	89 d0                	mov    eax,edx
     bd2:	c1 e0 03             	shl    eax,0x3
     bd5:	01 d0                	add    eax,edx
     bd7:	8d 14 c5 00 00 00 00 	lea    edx,[eax*8+0x0]
     bde:	01 d0                	add    eax,edx
     be0:	01 c8                	add    eax,ecx
     be2:	05 e0 55 00 00       	add    eax,0x55e0
     be7:	8a 00                	mov    al,BYTE PTR [eax]
     be9:	0f b6 d8             	movzx  ebx,al
     bec:	a0 c0 51 00 00       	mov    al,ds:0x51c0
     bf1:	0f be d0             	movsx  edx,al
     bf4:	a0 a0 50 00 00       	mov    al,ds:0x50a0
     bf9:	0f be c8             	movsx  ecx,al
     bfc:	89 d0                	mov    eax,edx
     bfe:	c1 e0 03             	shl    eax,0x3
     c01:	01 d0                	add    eax,edx
     c03:	8d 14 c5 00 00 00 00 	lea    edx,[eax*8+0x0]
     c0a:	01 d0                	add    eax,edx
     c0c:	01 c8                	add    eax,ecx
     c0e:	05 e0 55 00 00       	add    eax,0x55e0
     c13:	8a 00                	mov    al,BYTE PTR [eax]
     c15:	0f b6 c8             	movzx  ecx,al
     c18:	a0 a0 50 00 00       	mov    al,ds:0x50a0
     c1d:	0f be d0             	movsx  edx,al
     c20:	a0 c0 51 00 00       	mov    al,ds:0x51c0
     c25:	0f be c0             	movsx  eax,al
     c28:	83 ec 0c             	sub    esp,0xc
     c2b:	53                   	push   ebx
     c2c:	51                   	push   ecx
     c2d:	52                   	push   edx
     c2e:	50                   	push   eax
     c2f:	68 e4 32 00 00       	push   0x32e4
     c34:	e8 1e 26 00 00       	call   3257 <code+0x3257>
     c39:	83 c4 20             	add    esp,0x20
     c3c:	e9 86 00 00 00       	jmp    cc7 <code+0xcc7>
     c41:	83 ec 08             	sub    esp,0x8
     c44:	6a 17                	push   0x17
     c46:	6a 14                	push   0x14
     c48:	e8 de 15 00 00       	call   222b <code+0x222b>
     c4d:	83 c4 10             	add    esp,0x10
     c50:	80 7d c7 0a          	cmp    BYTE PTR [ebp-0x39],0xa
     c54:	74 1a                	je     c70 <code+0xc70>
     c56:	0f b6 55 c7          	movzx  edx,BYTE PTR [ebp-0x39]
     c5a:	0f b6 45 c7          	movzx  eax,BYTE PTR [ebp-0x39]
     c5e:	83 ec 04             	sub    esp,0x4
     c61:	52                   	push   edx
     c62:	50                   	push   eax
     c63:	68 01 33 00 00       	push   0x3301
     c68:	e8 ea 25 00 00       	call   3257 <code+0x3257>
     c6d:	83 c4 10             	add    esp,0x10
     c70:	83 ec 08             	sub    esp,0x8
     c73:	6a 17                	push   0x17
     c75:	6a 4a                	push   0x4a
     c77:	e8 af 15 00 00       	call   222b <code+0x222b>
     c7c:	83 c4 10             	add    esp,0x10
     c7f:	a0 c0 51 00 00       	mov    al,ds:0x51c0
     c84:	0f be c0             	movsx  eax,al
     c87:	8d 50 01             	lea    edx,[eax+0x1]
     c8a:	a0 a0 50 00 00       	mov    al,ds:0x50a0
     c8f:	0f be c0             	movsx  eax,al
     c92:	40                   	inc    eax
     c93:	83 ec 04             	sub    esp,0x4
     c96:	52                   	push   edx
     c97:	50                   	push   eax
     c98:	68 1e 33 00 00       	push   0x331e
     c9d:	e8 b5 25 00 00       	call   3257 <code+0x3257>
     ca2:	83 c4 10             	add    esp,0x10
     ca5:	a0 c0 51 00 00       	mov    al,ds:0x51c0
     caa:	0f be d0             	movsx  edx,al
     cad:	a0 a0 50 00 00       	mov    al,ds:0x50a0
     cb2:	0f be c0             	movsx  eax,al
     cb5:	83 ec 08             	sub    esp,0x8
     cb8:	52                   	push   edx
     cb9:	50                   	push   eax
     cba:	e8 6c 15 00 00       	call   222b <code+0x222b>
     cbf:	83 c4 10             	add    esp,0x10
     cc2:	e9 d0 f5 ff ff       	jmp    297 <code+0x297>
     cc7:	e9 cb f5 ff ff       	jmp    297 <code+0x297>
     ccc:	83 ec 1c             	sub    esp,0x1c
     ccf:	8b 44 24 20          	mov    eax,DWORD PTR [esp+0x20]
     cd3:	89 44 24 0c          	mov    DWORD PTR [esp+0xc],eax
     cd7:	eb 29                	jmp    d02 <code+0xd02>
     cd9:	8b 44 24 0c          	mov    eax,DWORD PTR [esp+0xc]
     cdd:	0f be c0             	movsx  eax,al
     ce0:	83 ec 08             	sub    esp,0x8
     ce3:	50                   	push   eax
     ce4:	6a 00                	push   0x0
     ce6:	e8 40 15 00 00       	call   222b <code+0x222b>
     ceb:	83 c4 10             	add    esp,0x10
     cee:	83 ec 0c             	sub    esp,0xc
     cf1:	68 26 33 00 00       	push   0x3326
     cf6:	e8 5c 25 00 00       	call   3257 <code+0x3257>
     cfb:	83 c4 10             	add    esp,0x10
     cfe:	ff 44 24 0c          	inc    DWORD PTR [esp+0xc]
     d02:	83 7c 24 0c 17       	cmp    DWORD PTR [esp+0xc],0x17
     d07:	7e d0                	jle    cd9 <code+0xcd9>
     d09:	83 c4 1c             	add    esp,0x1c
     d0c:	c3                   	ret    
     d0d:	57                   	push   edi
     d0e:	56                   	push   esi
     d0f:	53                   	push   ebx
     d10:	83 ec 20             	sub    esp,0x20
     d13:	c7 44 24 07 00 00 00 	mov    DWORD PTR [esp+0x7],0x0
     d1a:	00 
     d1b:	8d 5c 24 0b          	lea    ebx,[esp+0xb]
     d1f:	b0 00                	mov    al,0x0
     d21:	ba 10 00 00 00       	mov    edx,0x10
     d26:	89 df                	mov    edi,ebx
     d28:	89 d1                	mov    ecx,edx
     d2a:	f3 aa                	rep stos BYTE PTR es:[edi],al
     d2c:	83 ec 08             	sub    esp,0x8
     d2f:	6a 17                	push   0x17
     d31:	6a 00                	push   0x0
     d33:	e8 f3 14 00 00       	call   222b <code+0x222b>
     d38:	83 c4 10             	add    esp,0x10
     d3b:	83 ec 0c             	sub    esp,0xc
     d3e:	68 28 33 00 00       	push   0x3328
     d43:	e8 0f 25 00 00       	call   3257 <code+0x3257>
     d48:	83 c4 10             	add    esp,0x10
     d4b:	83 ec 08             	sub    esp,0x8
     d4e:	6a 17                	push   0x17
     d50:	6a 4a                	push   0x4a
     d52:	e8 d4 14 00 00       	call   222b <code+0x222b>
     d57:	83 c4 10             	add    esp,0x10
     d5a:	a0 c0 51 00 00       	mov    al,ds:0x51c0
     d5f:	0f be c0             	movsx  eax,al
     d62:	8d 50 01             	lea    edx,[eax+0x1]
     d65:	a0 a0 50 00 00       	mov    al,ds:0x50a0
     d6a:	0f be c0             	movsx  eax,al
     d6d:	40                   	inc    eax
     d6e:	83 ec 04             	sub    esp,0x4
     d71:	52                   	push   edx
     d72:	50                   	push   eax
     d73:	68 1e 33 00 00       	push   0x331e
     d78:	e8 da 24 00 00       	call   3257 <code+0x3257>
     d7d:	83 c4 10             	add    esp,0x10
     d80:	a0 c0 51 00 00       	mov    al,ds:0x51c0
     d85:	0f be d0             	movsx  edx,al
     d88:	a0 a0 50 00 00       	mov    al,ds:0x50a0
     d8d:	0f be c0             	movsx  eax,al
     d90:	83 ec 08             	sub    esp,0x8
     d93:	52                   	push   edx
     d94:	50                   	push   eax
     d95:	e8 91 14 00 00       	call   222b <code+0x222b>
     d9a:	83 c4 10             	add    esp,0x10
     d9d:	e8 e6 18 00 00       	call   2688 <code+0x2688>
     da2:	88 44 24 1b          	mov    BYTE PTR [esp+0x1b],al
     da6:	80 7c 24 1b 00       	cmp    BYTE PTR [esp+0x1b],0x0
     dab:	75 05                	jne    db2 <code+0xdb2>
     dad:	e9 17 08 00 00       	jmp    15c9 <code+0x15c9>
     db2:	0f b6 44 24 1b       	movzx  eax,BYTE PTR [esp+0x1b]
     db7:	83 f8 64             	cmp    eax,0x64
     dba:	0f 84 8b 05 00 00    	je     134b <code+0x134b>
     dc0:	83 f8 64             	cmp    eax,0x64
     dc3:	7f 45                	jg     e0a <code+0xe0a>
     dc5:	83 f8 41             	cmp    eax,0x41
     dc8:	0f 84 29 05 00 00    	je     12f7 <code+0x12f7>
     dce:	83 f8 41             	cmp    eax,0x41
     dd1:	7f 17                	jg     dea <code+0xdea>
     dd3:	83 f8 0a             	cmp    eax,0xa
     dd6:	0f 84 82 00 00 00    	je     e5e <code+0xe5e>
     ddc:	83 f8 3a             	cmp    eax,0x3a
     ddf:	0f 84 da 07 00 00    	je     15bf <code+0x15bf>
     de5:	e9 61 ff ff ff       	jmp    d4b <code+0xd4b>
     dea:	83 f8 49             	cmp    eax,0x49
     ded:	0f 84 db 04 00 00    	je     12ce <code+0x12ce>
     df3:	83 f8 61             	cmp    eax,0x61
     df6:	0f 84 c2 04 00 00    	je     12be <code+0x12be>
     dfc:	83 f8 47             	cmp    eax,0x47
     dff:	0f 84 0b 06 00 00    	je     1410 <code+0x1410>
     e05:	e9 41 ff ff ff       	jmp    d4b <code+0xd4b>
     e0a:	3d bf 00 00 00       	cmp    eax,0xbf
     e0f:	0f 84 2b 02 00 00    	je     1040 <code+0x1040>
     e15:	3d bf 00 00 00       	cmp    eax,0xbf
     e1a:	7f 20                	jg     e3c <code+0xe3c>
     e1c:	83 f8 69             	cmp    eax,0x69
     e1f:	0f 84 a9 07 00 00    	je     15ce <code+0x15ce>
     e25:	83 f8 78             	cmp    eax,0x78
     e28:	0f 84 a1 06 00 00    	je     14cf <code+0x14cf>
     e2e:	83 f8 67             	cmp    eax,0x67
     e31:	0f 84 1e 05 00 00    	je     1355 <code+0x1355>
     e37:	e9 0f ff ff ff       	jmp    d4b <code+0xd4b>
     e3c:	3d c1 00 00 00       	cmp    eax,0xc1
     e41:	74 43                	je     e86 <code+0xe86>
     e43:	3d c1 00 00 00       	cmp    eax,0xc1
     e48:	0f 8c 2c 03 00 00    	jl     117a <code+0x117a>
     e4e:	3d c2 00 00 00       	cmp    eax,0xc2
     e53:	0f 84 f2 00 00 00    	je     f4b <code+0xf4b>
     e59:	e9 ed fe ff ff       	jmp    d4b <code+0xd4b>
     e5e:	a0 c0 51 00 00       	mov    al,ds:0x51c0
     e63:	0f be d0             	movsx  edx,al
     e66:	a1 a4 50 00 00       	mov    eax,ds:0x50a4
     e6b:	39 c2                	cmp    edx,eax
     e6d:	7d 12                	jge    e81 <code+0xe81>
     e6f:	c6 05 a0 50 00 00 00 	mov    BYTE PTR ds:0x50a0,0x0
     e76:	a0 c0 51 00 00       	mov    al,ds:0x51c0
     e7b:	40                   	inc    eax
     e7c:	a2 c0 51 00 00       	mov    ds:0x51c0,al
     e81:	e9 43 07 00 00       	jmp    15c9 <code+0x15c9>
     e86:	a0 a0 50 00 00       	mov    al,ds:0x50a0
     e8b:	84 c0                	test   al,al
     e8d:	0f 8e b3 00 00 00    	jle    f46 <code+0xf46>
     e93:	a0 a0 50 00 00       	mov    al,ds:0x50a0
     e98:	48                   	dec    eax
     e99:	a2 a0 50 00 00       	mov    ds:0x50a0,al
     e9e:	83 ec 08             	sub    esp,0x8
     ea1:	6a 17                	push   0x17
     ea3:	6a 32                	push   0x32
     ea5:	e8 81 13 00 00       	call   222b <code+0x222b>
     eaa:	83 c4 10             	add    esp,0x10
     ead:	a0 c0 51 00 00       	mov    al,ds:0x51c0
     eb2:	0f be d0             	movsx  edx,al
     eb5:	a0 a0 50 00 00       	mov    al,ds:0x50a0
     eba:	0f be c8             	movsx  ecx,al
     ebd:	89 d0                	mov    eax,edx
     ebf:	c1 e0 03             	shl    eax,0x3
     ec2:	01 d0                	add    eax,edx
     ec4:	8d 14 c5 00 00 00 00 	lea    edx,[eax*8+0x0]
     ecb:	01 d0                	add    eax,edx
     ecd:	01 c8                	add    eax,ecx
     ecf:	05 e0 55 00 00       	add    eax,0x55e0
     ed4:	8a 00                	mov    al,BYTE PTR [eax]
     ed6:	0f b6 d8             	movzx  ebx,al
     ed9:	a0 c0 51 00 00       	mov    al,ds:0x51c0
     ede:	0f be d0             	movsx  edx,al
     ee1:	a0 a0 50 00 00       	mov    al,ds:0x50a0
     ee6:	0f be c8             	movsx  ecx,al
     ee9:	89 d0                	mov    eax,edx
     eeb:	c1 e0 03             	shl    eax,0x3
     eee:	01 d0                	add    eax,edx
     ef0:	8d 14 c5 00 00 00 00 	lea    edx,[eax*8+0x0]
     ef7:	01 d0                	add    eax,edx
     ef9:	01 c8                	add    eax,ecx
     efb:	05 e0 55 00 00       	add    eax,0x55e0
     f00:	8a 00                	mov    al,BYTE PTR [eax]
     f02:	0f b6 c8             	movzx  ecx,al
     f05:	a0 a0 50 00 00       	mov    al,ds:0x50a0
     f0a:	0f be d0             	movsx  edx,al
     f0d:	a0 c0 51 00 00       	mov    al,ds:0x51c0
     f12:	0f be c0             	movsx  eax,al
     f15:	83 ec 0c             	sub    esp,0xc
     f18:	53                   	push   ebx
     f19:	51                   	push   ecx
     f1a:	52                   	push   edx
     f1b:	50                   	push   eax
     f1c:	68 e4 32 00 00       	push   0x32e4
     f21:	e8 31 23 00 00       	call   3257 <code+0x3257>
     f26:	83 c4 20             	add    esp,0x20
     f29:	a0 c0 51 00 00       	mov    al,ds:0x51c0
     f2e:	0f be d0             	movsx  edx,al
     f31:	a0 a0 50 00 00       	mov    al,ds:0x50a0
     f36:	0f be c0             	movsx  eax,al
     f39:	83 ec 08             	sub    esp,0x8
     f3c:	52                   	push   edx
     f3d:	50                   	push   eax
     f3e:	e8 e8 12 00 00       	call   222b <code+0x222b>
     f43:	83 c4 10             	add    esp,0x10
     f46:	e9 7e 06 00 00       	jmp    15c9 <code+0x15c9>
     f4b:	a0 a0 50 00 00       	mov    al,ds:0x50a0
     f50:	0f be d8             	movsx  ebx,al
     f53:	b9 e0 55 00 00       	mov    ecx,0x55e0
     f58:	a0 c0 51 00 00       	mov    al,ds:0x51c0
     f5d:	0f be d0             	movsx  edx,al
     f60:	89 d0                	mov    eax,edx
     f62:	c1 e0 03             	shl    eax,0x3
     f65:	01 d0                	add    eax,edx
     f67:	8d 14 c5 00 00 00 00 	lea    edx,[eax*8+0x0]
     f6e:	01 d0                	add    eax,edx
     f70:	8d 04 01             	lea    eax,[ecx+eax*1]
     f73:	83 ec 0c             	sub    esp,0xc
     f76:	50                   	push   eax
     f77:	e8 1f 0e 00 00       	call   1d9b <code+0x1d9b>
     f7c:	83 c4 10             	add    esp,0x10
     f7f:	48                   	dec    eax
     f80:	39 c3                	cmp    ebx,eax
     f82:	0f 8d b3 00 00 00    	jge    103b <code+0x103b>
     f88:	a0 a0 50 00 00       	mov    al,ds:0x50a0
     f8d:	40                   	inc    eax
     f8e:	a2 a0 50 00 00       	mov    ds:0x50a0,al
     f93:	83 ec 08             	sub    esp,0x8
     f96:	6a 17                	push   0x17
     f98:	6a 32                	push   0x32
     f9a:	e8 8c 12 00 00       	call   222b <code+0x222b>
     f9f:	83 c4 10             	add    esp,0x10
     fa2:	a0 c0 51 00 00       	mov    al,ds:0x51c0
     fa7:	0f be d0             	movsx  edx,al
     faa:	a0 a0 50 00 00       	mov    al,ds:0x50a0
     faf:	0f be c8             	movsx  ecx,al
     fb2:	89 d0                	mov    eax,edx
     fb4:	c1 e0 03             	shl    eax,0x3
     fb7:	01 d0                	add    eax,edx
     fb9:	8d 14 c5 00 00 00 00 	lea    edx,[eax*8+0x0]
     fc0:	01 d0                	add    eax,edx
     fc2:	01 c8                	add    eax,ecx
     fc4:	05 e0 55 00 00       	add    eax,0x55e0
     fc9:	8a 00                	mov    al,BYTE PTR [eax]
     fcb:	0f b6 d8             	movzx  ebx,al
     fce:	a0 c0 51 00 00       	mov    al,ds:0x51c0
     fd3:	0f be d0             	movsx  edx,al
     fd6:	a0 a0 50 00 00       	mov    al,ds:0x50a0
     fdb:	0f be c8             	movsx  ecx,al
     fde:	89 d0                	mov    eax,edx
     fe0:	c1 e0 03             	shl    eax,0x3
     fe3:	01 d0                	add    eax,edx
     fe5:	8d 14 c5 00 00 00 00 	lea    edx,[eax*8+0x0]
     fec:	01 d0                	add    eax,edx
     fee:	01 c8                	add    eax,ecx
     ff0:	05 e0 55 00 00       	add    eax,0x55e0
     ff5:	8a 00                	mov    al,BYTE PTR [eax]
     ff7:	0f b6 c8             	movzx  ecx,al
     ffa:	a0 a0 50 00 00       	mov    al,ds:0x50a0
     fff:	0f be d0             	movsx  edx,al
    1002:	a0 c0 51 00 00       	mov    al,ds:0x51c0
    1007:	0f be c0             	movsx  eax,al
    100a:	83 ec 0c             	sub    esp,0xc
    100d:	53                   	push   ebx
    100e:	51                   	push   ecx
    100f:	52                   	push   edx
    1010:	50                   	push   eax
    1011:	68 e4 32 00 00       	push   0x32e4
    1016:	e8 3c 22 00 00       	call   3257 <code+0x3257>
    101b:	83 c4 20             	add    esp,0x20
    101e:	a0 c0 51 00 00       	mov    al,ds:0x51c0
    1023:	0f be d0             	movsx  edx,al
    1026:	a0 a0 50 00 00       	mov    al,ds:0x50a0
    102b:	0f be c0             	movsx  eax,al
    102e:	83 ec 08             	sub    esp,0x8
    1031:	52                   	push   edx
    1032:	50                   	push   eax
    1033:	e8 f3 11 00 00       	call   222b <code+0x222b>
    1038:	83 c4 10             	add    esp,0x10
    103b:	e9 89 05 00 00       	jmp    15c9 <code+0x15c9>
    1040:	a0 c0 51 00 00       	mov    al,ds:0x51c0
    1045:	84 c0                	test   al,al
    1047:	7e 0b                	jle    1054 <code+0x1054>
    1049:	a0 c0 51 00 00       	mov    al,ds:0x51c0
    104e:	48                   	dec    eax
    104f:	a2 c0 51 00 00       	mov    ds:0x51c0,al
    1054:	a0 a0 50 00 00       	mov    al,ds:0x50a0
    1059:	0f be d8             	movsx  ebx,al
    105c:	b9 e0 55 00 00       	mov    ecx,0x55e0
    1061:	a0 c0 51 00 00       	mov    al,ds:0x51c0
    1066:	0f be d0             	movsx  edx,al
    1069:	89 d0                	mov    eax,edx
    106b:	c1 e0 03             	shl    eax,0x3
    106e:	01 d0                	add    eax,edx
    1070:	8d 14 c5 00 00 00 00 	lea    edx,[eax*8+0x0]
    1077:	01 d0                	add    eax,edx
    1079:	8d 04 01             	lea    eax,[ecx+eax*1]
    107c:	83 ec 0c             	sub    esp,0xc
    107f:	50                   	push   eax
    1080:	e8 16 0d 00 00       	call   1d9b <code+0x1d9b>
    1085:	83 c4 10             	add    esp,0x10
    1088:	48                   	dec    eax
    1089:	39 c3                	cmp    ebx,eax
    108b:	7e 40                	jle    10cd <code+0x10cd>
    108d:	b9 e0 55 00 00       	mov    ecx,0x55e0
    1092:	a0 c0 51 00 00       	mov    al,ds:0x51c0
    1097:	0f be d0             	movsx  edx,al
    109a:	89 d0                	mov    eax,edx
    109c:	c1 e0 03             	shl    eax,0x3
    109f:	01 d0                	add    eax,edx
    10a1:	8d 14 c5 00 00 00 00 	lea    edx,[eax*8+0x0]
    10a8:	01 d0                	add    eax,edx
    10aa:	8d 04 01             	lea    eax,[ecx+eax*1]
    10ad:	83 ec 0c             	sub    esp,0xc
    10b0:	50                   	push   eax
    10b1:	e8 e5 0c 00 00       	call   1d9b <code+0x1d9b>
    10b6:	83 c4 10             	add    esp,0x10
    10b9:	48                   	dec    eax
    10ba:	83 ec 08             	sub    esp,0x8
    10bd:	50                   	push   eax
    10be:	6a 00                	push   0x0
    10c0:	e8 b8 06 00 00       	call   177d <code+0x177d>
    10c5:	83 c4 10             	add    esp,0x10
    10c8:	a2 a0 50 00 00       	mov    ds:0x50a0,al
    10cd:	83 ec 08             	sub    esp,0x8
    10d0:	6a 17                	push   0x17
    10d2:	6a 32                	push   0x32
    10d4:	e8 52 11 00 00       	call   222b <code+0x222b>
    10d9:	83 c4 10             	add    esp,0x10
    10dc:	a0 c0 51 00 00       	mov    al,ds:0x51c0
    10e1:	0f be d0             	movsx  edx,al
    10e4:	a0 a0 50 00 00       	mov    al,ds:0x50a0
    10e9:	0f be c8             	movsx  ecx,al
    10ec:	89 d0                	mov    eax,edx
    10ee:	c1 e0 03             	shl    eax,0x3
    10f1:	01 d0                	add    eax,edx
    10f3:	8d 14 c5 00 00 00 00 	lea    edx,[eax*8+0x0]
    10fa:	01 d0                	add    eax,edx
    10fc:	01 c8                	add    eax,ecx
    10fe:	05 e0 55 00 00       	add    eax,0x55e0
    1103:	8a 00                	mov    al,BYTE PTR [eax]
    1105:	0f b6 d8             	movzx  ebx,al
    1108:	a0 c0 51 00 00       	mov    al,ds:0x51c0
    110d:	0f be d0             	movsx  edx,al
    1110:	a0 a0 50 00 00       	mov    al,ds:0x50a0
    1115:	0f be c8             	movsx  ecx,al
    1118:	89 d0                	mov    eax,edx
    111a:	c1 e0 03             	shl    eax,0x3
    111d:	01 d0                	add    eax,edx
    111f:	8d 14 c5 00 00 00 00 	lea    edx,[eax*8+0x0]
    1126:	01 d0                	add    eax,edx
    1128:	01 c8                	add    eax,ecx
    112a:	05 e0 55 00 00       	add    eax,0x55e0
    112f:	8a 00                	mov    al,BYTE PTR [eax]
    1131:	0f b6 c8             	movzx  ecx,al
    1134:	a0 a0 50 00 00       	mov    al,ds:0x50a0
    1139:	0f be d0             	movsx  edx,al
    113c:	a0 c0 51 00 00       	mov    al,ds:0x51c0
    1141:	0f be c0             	movsx  eax,al
    1144:	83 ec 0c             	sub    esp,0xc
    1147:	53                   	push   ebx
    1148:	51                   	push   ecx
    1149:	52                   	push   edx
    114a:	50                   	push   eax
    114b:	68 e4 32 00 00       	push   0x32e4
    1150:	e8 02 21 00 00       	call   3257 <code+0x3257>
    1155:	83 c4 20             	add    esp,0x20
    1158:	a0 c0 51 00 00       	mov    al,ds:0x51c0
    115d:	0f be d0             	movsx  edx,al
    1160:	a0 a0 50 00 00       	mov    al,ds:0x50a0
    1165:	0f be c0             	movsx  eax,al
    1168:	83 ec 08             	sub    esp,0x8
    116b:	52                   	push   edx
    116c:	50                   	push   eax
    116d:	e8 b9 10 00 00       	call   222b <code+0x222b>
    1172:	83 c4 10             	add    esp,0x10
    1175:	e9 4f 04 00 00       	jmp    15c9 <code+0x15c9>
    117a:	a0 c0 51 00 00       	mov    al,ds:0x51c0
    117f:	0f be c0             	movsx  eax,al
    1182:	8b 15 a4 50 00 00    	mov    edx,DWORD PTR ds:0x50a4
    1188:	4a                   	dec    edx
    1189:	39 d0                	cmp    eax,edx
    118b:	7d 0b                	jge    1198 <code+0x1198>
    118d:	a0 c0 51 00 00       	mov    al,ds:0x51c0
    1192:	40                   	inc    eax
    1193:	a2 c0 51 00 00       	mov    ds:0x51c0,al
    1198:	a0 a0 50 00 00       	mov    al,ds:0x50a0
    119d:	0f be d8             	movsx  ebx,al
    11a0:	b9 e0 55 00 00       	mov    ecx,0x55e0
    11a5:	a0 c0 51 00 00       	mov    al,ds:0x51c0
    11aa:	0f be d0             	movsx  edx,al
    11ad:	89 d0                	mov    eax,edx
    11af:	c1 e0 03             	shl    eax,0x3
    11b2:	01 d0                	add    eax,edx
    11b4:	8d 14 c5 00 00 00 00 	lea    edx,[eax*8+0x0]
    11bb:	01 d0                	add    eax,edx
    11bd:	8d 04 01             	lea    eax,[ecx+eax*1]
    11c0:	83 ec 0c             	sub    esp,0xc
    11c3:	50                   	push   eax
    11c4:	e8 d2 0b 00 00       	call   1d9b <code+0x1d9b>
    11c9:	83 c4 10             	add    esp,0x10
    11cc:	48                   	dec    eax
    11cd:	39 c3                	cmp    ebx,eax
    11cf:	7e 40                	jle    1211 <code+0x1211>
    11d1:	b9 e0 55 00 00       	mov    ecx,0x55e0
    11d6:	a0 c0 51 00 00       	mov    al,ds:0x51c0
    11db:	0f be d0             	movsx  edx,al
    11de:	89 d0                	mov    eax,edx
    11e0:	c1 e0 03             	shl    eax,0x3
    11e3:	01 d0                	add    eax,edx
    11e5:	8d 14 c5 00 00 00 00 	lea    edx,[eax*8+0x0]
    11ec:	01 d0                	add    eax,edx
    11ee:	8d 04 01             	lea    eax,[ecx+eax*1]
    11f1:	83 ec 0c             	sub    esp,0xc
    11f4:	50                   	push   eax
    11f5:	e8 a1 0b 00 00       	call   1d9b <code+0x1d9b>
    11fa:	83 c4 10             	add    esp,0x10
    11fd:	48                   	dec    eax
    11fe:	83 ec 08             	sub    esp,0x8
    1201:	50                   	push   eax
    1202:	6a 00                	push   0x0
    1204:	e8 74 05 00 00       	call   177d <code+0x177d>
    1209:	83 c4 10             	add    esp,0x10
    120c:	a2 a0 50 00 00       	mov    ds:0x50a0,al
    1211:	83 ec 08             	sub    esp,0x8
    1214:	6a 17                	push   0x17
    1216:	6a 32                	push   0x32
    1218:	e8 0e 10 00 00       	call   222b <code+0x222b>
    121d:	83 c4 10             	add    esp,0x10
    1220:	a0 c0 51 00 00       	mov    al,ds:0x51c0
    1225:	0f be d0             	movsx  edx,al
    1228:	a0 a0 50 00 00       	mov    al,ds:0x50a0
    122d:	0f be c8             	movsx  ecx,al
    1230:	89 d0                	mov    eax,edx
    1232:	c1 e0 03             	shl    eax,0x3
    1235:	01 d0                	add    eax,edx
    1237:	8d 14 c5 00 00 00 00 	lea    edx,[eax*8+0x0]
    123e:	01 d0                	add    eax,edx
    1240:	01 c8                	add    eax,ecx
    1242:	05 e0 55 00 00       	add    eax,0x55e0
    1247:	8a 00                	mov    al,BYTE PTR [eax]
    1249:	0f b6 d8             	movzx  ebx,al
    124c:	a0 c0 51 00 00       	mov    al,ds:0x51c0
    1251:	0f be d0             	movsx  edx,al
    1254:	a0 a0 50 00 00       	mov    al,ds:0x50a0
    1259:	0f be c8             	movsx  ecx,al
    125c:	89 d0                	mov    eax,edx
    125e:	c1 e0 03             	shl    eax,0x3
    1261:	01 d0                	add    eax,edx
    1263:	8d 14 c5 00 00 00 00 	lea    edx,[eax*8+0x0]
    126a:	01 d0                	add    eax,edx
    126c:	01 c8                	add    eax,ecx
    126e:	05 e0 55 00 00       	add    eax,0x55e0
    1273:	8a 00                	mov    al,BYTE PTR [eax]
    1275:	0f b6 c8             	movzx  ecx,al
    1278:	a0 a0 50 00 00       	mov    al,ds:0x50a0
    127d:	0f be d0             	movsx  edx,al
    1280:	a0 c0 51 00 00       	mov    al,ds:0x51c0
    1285:	0f be c0             	movsx  eax,al
    1288:	83 ec 0c             	sub    esp,0xc
    128b:	53                   	push   ebx
    128c:	51                   	push   ecx
    128d:	52                   	push   edx
    128e:	50                   	push   eax
    128f:	68 e4 32 00 00       	push   0x32e4
    1294:	e8 be 1f 00 00       	call   3257 <code+0x3257>
    1299:	83 c4 20             	add    esp,0x20
    129c:	a0 c0 51 00 00       	mov    al,ds:0x51c0
    12a1:	0f be d0             	movsx  edx,al
    12a4:	a0 a0 50 00 00       	mov    al,ds:0x50a0
    12a9:	0f be c0             	movsx  eax,al
    12ac:	83 ec 08             	sub    esp,0x8
    12af:	52                   	push   edx
    12b0:	50                   	push   eax
    12b1:	e8 75 0f 00 00       	call   222b <code+0x222b>
    12b6:	83 c4 10             	add    esp,0x10
    12b9:	e9 0b 03 00 00       	jmp    15c9 <code+0x15c9>
    12be:	a0 a0 50 00 00       	mov    al,ds:0x50a0
    12c3:	40                   	inc    eax
    12c4:	a2 a0 50 00 00       	mov    ds:0x50a0,al
    12c9:	e9 01 03 00 00       	jmp    15cf <code+0x15cf>
    12ce:	c6 05 a0 50 00 00 00 	mov    BYTE PTR ds:0x50a0,0x0
    12d5:	a0 c0 51 00 00       	mov    al,ds:0x51c0
    12da:	0f be d0             	movsx  edx,al
    12dd:	a0 a0 50 00 00       	mov    al,ds:0x50a0
    12e2:	0f be c0             	movsx  eax,al
    12e5:	83 ec 08             	sub    esp,0x8
    12e8:	52                   	push   edx
    12e9:	50                   	push   eax
    12ea:	e8 3c 0f 00 00       	call   222b <code+0x222b>
    12ef:	83 c4 10             	add    esp,0x10
    12f2:	e9 d8 02 00 00       	jmp    15cf <code+0x15cf>
    12f7:	b9 e0 55 00 00       	mov    ecx,0x55e0
    12fc:	a0 c0 51 00 00       	mov    al,ds:0x51c0
    1301:	0f be d0             	movsx  edx,al
    1304:	89 d0                	mov    eax,edx
    1306:	c1 e0 03             	shl    eax,0x3
    1309:	01 d0                	add    eax,edx
    130b:	8d 14 c5 00 00 00 00 	lea    edx,[eax*8+0x0]
    1312:	01 d0                	add    eax,edx
    1314:	8d 04 01             	lea    eax,[ecx+eax*1]
    1317:	83 ec 0c             	sub    esp,0xc
    131a:	50                   	push   eax
    131b:	e8 7b 0a 00 00       	call   1d9b <code+0x1d9b>
    1320:	83 c4 10             	add    esp,0x10
    1323:	a2 a0 50 00 00       	mov    ds:0x50a0,al
    1328:	a0 c0 51 00 00       	mov    al,ds:0x51c0
    132d:	0f be d0             	movsx  edx,al
    1330:	a0 a0 50 00 00       	mov    al,ds:0x50a0
    1335:	0f be c0             	movsx  eax,al
    1338:	83 ec 08             	sub    esp,0x8
    133b:	52                   	push   edx
    133c:	50                   	push   eax
    133d:	e8 e9 0e 00 00       	call   222b <code+0x222b>
    1342:	83 c4 10             	add    esp,0x10
    1345:	90                   	nop
    1346:	e9 84 02 00 00       	jmp    15cf <code+0x15cf>
    134b:	e8 b5 03 00 00       	call   1705 <code+0x1705>
    1350:	e9 74 02 00 00       	jmp    15c9 <code+0x15c9>
    1355:	c6 05 a0 50 00 00 00 	mov    BYTE PTR ds:0x50a0,0x0
    135c:	c6 05 c0 51 00 00 00 	mov    BYTE PTR ds:0x51c0,0x0
    1363:	83 ec 08             	sub    esp,0x8
    1366:	6a 17                	push   0x17
    1368:	6a 32                	push   0x32
    136a:	e8 bc 0e 00 00       	call   222b <code+0x222b>
    136f:	83 c4 10             	add    esp,0x10
    1372:	a0 c0 51 00 00       	mov    al,ds:0x51c0
    1377:	0f be d0             	movsx  edx,al
    137a:	a0 a0 50 00 00       	mov    al,ds:0x50a0
    137f:	0f be c8             	movsx  ecx,al
    1382:	89 d0                	mov    eax,edx
    1384:	c1 e0 03             	shl    eax,0x3
    1387:	01 d0                	add    eax,edx
    1389:	8d 14 c5 00 00 00 00 	lea    edx,[eax*8+0x0]
    1390:	01 d0                	add    eax,edx
    1392:	01 c8                	add    eax,ecx
    1394:	05 e0 55 00 00       	add    eax,0x55e0
    1399:	8a 00                	mov    al,BYTE PTR [eax]
    139b:	0f b6 d8             	movzx  ebx,al
    139e:	a0 c0 51 00 00       	mov    al,ds:0x51c0
    13a3:	0f be d0             	movsx  edx,al
    13a6:	a0 a0 50 00 00       	mov    al,ds:0x50a0
    13ab:	0f be c8             	movsx  ecx,al
    13ae:	89 d0                	mov    eax,edx
    13b0:	c1 e0 03             	shl    eax,0x3
    13b3:	01 d0                	add    eax,edx
    13b5:	8d 14 c5 00 00 00 00 	lea    edx,[eax*8+0x0]
    13bc:	01 d0                	add    eax,edx
    13be:	01 c8                	add    eax,ecx
    13c0:	05 e0 55 00 00       	add    eax,0x55e0
    13c5:	8a 00                	mov    al,BYTE PTR [eax]
    13c7:	0f b6 c8             	movzx  ecx,al
    13ca:	a0 a0 50 00 00       	mov    al,ds:0x50a0
    13cf:	0f be d0             	movsx  edx,al
    13d2:	a0 c0 51 00 00       	mov    al,ds:0x51c0
    13d7:	0f be c0             	movsx  eax,al
    13da:	83 ec 0c             	sub    esp,0xc
    13dd:	53                   	push   ebx
    13de:	51                   	push   ecx
    13df:	52                   	push   edx
    13e0:	50                   	push   eax
    13e1:	68 e4 32 00 00       	push   0x32e4
    13e6:	e8 6c 1e 00 00       	call   3257 <code+0x3257>
    13eb:	83 c4 20             	add    esp,0x20
    13ee:	a0 c0 51 00 00       	mov    al,ds:0x51c0
    13f3:	0f be d0             	movsx  edx,al
    13f6:	a0 a0 50 00 00       	mov    al,ds:0x50a0
    13fb:	0f be c0             	movsx  eax,al
    13fe:	83 ec 08             	sub    esp,0x8
    1401:	52                   	push   edx
    1402:	50                   	push   eax
    1403:	e8 23 0e 00 00       	call   222b <code+0x222b>
    1408:	83 c4 10             	add    esp,0x10
    140b:	e9 b9 01 00 00       	jmp    15c9 <code+0x15c9>
    1410:	c6 05 a0 50 00 00 00 	mov    BYTE PTR ds:0x50a0,0x0
    1417:	a1 a4 50 00 00       	mov    eax,ds:0x50a4
    141c:	48                   	dec    eax
    141d:	a2 c0 51 00 00       	mov    ds:0x51c0,al
    1422:	83 ec 08             	sub    esp,0x8
    1425:	6a 17                	push   0x17
    1427:	6a 32                	push   0x32
    1429:	e8 fd 0d 00 00       	call   222b <code+0x222b>
    142e:	83 c4 10             	add    esp,0x10
    1431:	a0 c0 51 00 00       	mov    al,ds:0x51c0
    1436:	0f be d0             	movsx  edx,al
    1439:	a0 a0 50 00 00       	mov    al,ds:0x50a0
    143e:	0f be c8             	movsx  ecx,al
    1441:	89 d0                	mov    eax,edx
    1443:	c1 e0 03             	shl    eax,0x3
    1446:	01 d0                	add    eax,edx
    1448:	8d 14 c5 00 00 00 00 	lea    edx,[eax*8+0x0]
    144f:	01 d0                	add    eax,edx
    1451:	01 c8                	add    eax,ecx
    1453:	05 e0 55 00 00       	add    eax,0x55e0
    1458:	8a 00                	mov    al,BYTE PTR [eax]
    145a:	0f b6 d8             	movzx  ebx,al
    145d:	a0 c0 51 00 00       	mov    al,ds:0x51c0
    1462:	0f be d0             	movsx  edx,al
    1465:	a0 a0 50 00 00       	mov    al,ds:0x50a0
    146a:	0f be c8             	movsx  ecx,al
    146d:	89 d0                	mov    eax,edx
    146f:	c1 e0 03             	shl    eax,0x3
    1472:	01 d0                	add    eax,edx
    1474:	8d 14 c5 00 00 00 00 	lea    edx,[eax*8+0x0]
    147b:	01 d0                	add    eax,edx
    147d:	01 c8                	add    eax,ecx
    147f:	05 e0 55 00 00       	add    eax,0x55e0
    1484:	8a 00                	mov    al,BYTE PTR [eax]
    1486:	0f b6 c8             	movzx  ecx,al
    1489:	a0 a0 50 00 00       	mov    al,ds:0x50a0
    148e:	0f be d0             	movsx  edx,al
    1491:	a0 c0 51 00 00       	mov    al,ds:0x51c0
    1496:	0f be c0             	movsx  eax,al
    1499:	83 ec 0c             	sub    esp,0xc
    149c:	53                   	push   ebx
    149d:	51                   	push   ecx
    149e:	52                   	push   edx
    149f:	50                   	push   eax
    14a0:	68 e4 32 00 00       	push   0x32e4
    14a5:	e8 ad 1d 00 00       	call   3257 <code+0x3257>
    14aa:	83 c4 20             	add    esp,0x20
    14ad:	a0 c0 51 00 00       	mov    al,ds:0x51c0
    14b2:	0f be d0             	movsx  edx,al
    14b5:	a0 a0 50 00 00       	mov    al,ds:0x50a0
    14ba:	0f be c0             	movsx  eax,al
    14bd:	83 ec 08             	sub    esp,0x8
    14c0:	52                   	push   edx
    14c1:	50                   	push   eax
    14c2:	e8 64 0d 00 00       	call   222b <code+0x222b>
    14c7:	83 c4 10             	add    esp,0x10
    14ca:	e9 fa 00 00 00       	jmp    15c9 <code+0x15c9>
    14cf:	83 ec 08             	sub    esp,0x8
    14d2:	6a 17                	push   0x17
    14d4:	6a 00                	push   0x0
    14d6:	e8 50 0d 00 00       	call   222b <code+0x222b>
    14db:	83 c4 10             	add    esp,0x10
    14de:	83 ec 0c             	sub    esp,0xc
    14e1:	68 35 33 00 00       	push   0x3335
    14e6:	e8 6c 1d 00 00       	call   3257 <code+0x3257>
    14eb:	83 c4 10             	add    esp,0x10
    14ee:	a0 a0 50 00 00       	mov    al,ds:0x50a0
    14f3:	0f be c0             	movsx  eax,al
    14f6:	89 44 24 1c          	mov    DWORD PTR [esp+0x1c],eax
    14fa:	eb 51                	jmp    154d <code+0x154d>
    14fc:	a0 c0 51 00 00       	mov    al,ds:0x51c0
    1501:	0f be c8             	movsx  ecx,al
    1504:	8b 5c 24 1c          	mov    ebx,DWORD PTR [esp+0x1c]
    1508:	a0 c0 51 00 00       	mov    al,ds:0x51c0
    150d:	0f be d0             	movsx  edx,al
    1510:	8b 44 24 1c          	mov    eax,DWORD PTR [esp+0x1c]
    1514:	8d 70 01             	lea    esi,[eax+0x1]
    1517:	89 d0                	mov    eax,edx
    1519:	c1 e0 03             	shl    eax,0x3
    151c:	01 d0                	add    eax,edx
    151e:	8d 14 c5 00 00 00 00 	lea    edx,[eax*8+0x0]
    1525:	01 d0                	add    eax,edx
    1527:	01 f0                	add    eax,esi
    1529:	05 e0 55 00 00       	add    eax,0x55e0
    152e:	8a 10                	mov    dl,BYTE PTR [eax]
    1530:	89 c8                	mov    eax,ecx
    1532:	c1 e0 03             	shl    eax,0x3
    1535:	01 c8                	add    eax,ecx
    1537:	8d 0c c5 00 00 00 00 	lea    ecx,[eax*8+0x0]
    153e:	01 c8                	add    eax,ecx
    1540:	01 d8                	add    eax,ebx
    1542:	05 e0 55 00 00       	add    eax,0x55e0
    1547:	88 10                	mov    BYTE PTR [eax],dl
    1549:	ff 44 24 1c          	inc    DWORD PTR [esp+0x1c]
    154d:	b9 e0 55 00 00       	mov    ecx,0x55e0
    1552:	a0 c0 51 00 00       	mov    al,ds:0x51c0
    1557:	0f be d0             	movsx  edx,al
    155a:	89 d0                	mov    eax,edx
    155c:	c1 e0 03             	shl    eax,0x3
    155f:	01 d0                	add    eax,edx
    1561:	8d 14 c5 00 00 00 00 	lea    edx,[eax*8+0x0]
    1568:	01 d0                	add    eax,edx
    156a:	8d 04 01             	lea    eax,[ecx+eax*1]
    156d:	83 ec 0c             	sub    esp,0xc
    1570:	50                   	push   eax
    1571:	e8 25 08 00 00       	call   1d9b <code+0x1d9b>
    1576:	83 c4 10             	add    esp,0x10
    1579:	3b 44 24 1c          	cmp    eax,DWORD PTR [esp+0x1c]
    157d:	0f 8f 79 ff ff ff    	jg     14fc <code+0x14fc>
    1583:	a0 c0 51 00 00       	mov    al,ds:0x51c0
    1588:	0f be d0             	movsx  edx,al
    158b:	8b 4c 24 1c          	mov    ecx,DWORD PTR [esp+0x1c]
    158f:	89 d0                	mov    eax,edx
    1591:	c1 e0 03             	shl    eax,0x3
    1594:	01 d0                	add    eax,edx
    1596:	8d 14 c5 00 00 00 00 	lea    edx,[eax*8+0x0]
    159d:	01 d0                	add    eax,edx
    159f:	01 c8                	add    eax,ecx
    15a1:	05 e0 55 00 00       	add    eax,0x55e0
    15a6:	c6 00 00             	mov    BYTE PTR [eax],0x0
    15a9:	a0 c0 51 00 00       	mov    al,ds:0x51c0
    15ae:	0f be c0             	movsx  eax,al
    15b1:	83 ec 0c             	sub    esp,0xc
    15b4:	50                   	push   eax
    15b5:	e8 d8 01 00 00       	call   1792 <code+0x1792>
    15ba:	83 c4 10             	add    esp,0x10
    15bd:	eb 0a                	jmp    15c9 <code+0x15c9>
    15bf:	e8 41 02 00 00       	call   1805 <code+0x1805>
    15c4:	e9 82 f7 ff ff       	jmp    d4b <code+0xd4b>
    15c9:	e9 7d f7 ff ff       	jmp    d4b <code+0xd4b>
    15ce:	90                   	nop
    15cf:	83 c4 20             	add    esp,0x20
    15d2:	5b                   	pop    ebx
    15d3:	5e                   	pop    esi
    15d4:	5f                   	pop    edi
    15d5:	c3                   	ret    
    15d6:	53                   	push   ebx
    15d7:	83 ec 18             	sub    esp,0x18
    15da:	83 ec 08             	sub    esp,0x8
    15dd:	6a 17                	push   0x17
    15df:	6a 00                	push   0x0
    15e1:	e8 45 0c 00 00       	call   222b <code+0x222b>
    15e6:	83 c4 10             	add    esp,0x10
    15e9:	83 ec 0c             	sub    esp,0xc
    15ec:	68 43 33 00 00       	push   0x3343
    15f1:	e8 61 1c 00 00       	call   3257 <code+0x3257>
    15f6:	83 c4 10             	add    esp,0x10
    15f9:	a0 c0 51 00 00       	mov    al,ds:0x51c0
    15fe:	0f be c0             	movsx  eax,al
    1601:	89 44 24 0c          	mov    DWORD PTR [esp+0xc],eax
    1605:	eb 4d                	jmp    1654 <code+0x1654>
    1607:	8b 44 24 0c          	mov    eax,DWORD PTR [esp+0xc]
    160b:	8d 50 01             	lea    edx,[eax+0x1]
    160e:	89 d0                	mov    eax,edx
    1610:	c1 e0 03             	shl    eax,0x3
    1613:	01 d0                	add    eax,edx
    1615:	8d 14 c5 00 00 00 00 	lea    edx,[eax*8+0x0]
    161c:	01 d0                	add    eax,edx
    161e:	05 e0 55 00 00       	add    eax,0x55e0
    1623:	89 c2                	mov    edx,eax
    1625:	bb e0 55 00 00       	mov    ebx,0x55e0
    162a:	8b 4c 24 0c          	mov    ecx,DWORD PTR [esp+0xc]
    162e:	89 c8                	mov    eax,ecx
    1630:	c1 e0 03             	shl    eax,0x3
    1633:	01 c8                	add    eax,ecx
    1635:	8d 0c c5 00 00 00 00 	lea    ecx,[eax*8+0x0]
    163c:	01 c8                	add    eax,ecx
    163e:	8d 04 03             	lea    eax,[ebx+eax*1]
    1641:	83 ec 04             	sub    esp,0x4
    1644:	6a 50                	push   0x50
    1646:	52                   	push   edx
    1647:	50                   	push   eax
    1648:	e8 94 08 00 00       	call   1ee1 <code+0x1ee1>
    164d:	83 c4 10             	add    esp,0x10
    1650:	ff 44 24 0c          	inc    DWORD PTR [esp+0xc]
    1654:	a1 a4 50 00 00       	mov    eax,ds:0x50a4
    1659:	39 44 24 0c          	cmp    DWORD PTR [esp+0xc],eax
    165d:	7c a8                	jl     1607 <code+0x1607>
    165f:	8b 15 a4 50 00 00    	mov    edx,DWORD PTR ds:0x50a4
    1665:	89 d0                	mov    eax,edx
    1667:	c1 e0 03             	shl    eax,0x3
    166a:	01 d0                	add    eax,edx
    166c:	8d 14 c5 00 00 00 00 	lea    edx,[eax*8+0x0]
    1673:	01 d0                	add    eax,edx
    1675:	c6 80 e0 55 00 00 00 	mov    BYTE PTR [eax+0x55e0],0x0
    167c:	a1 a4 50 00 00       	mov    eax,ds:0x50a4
    1681:	0f be c0             	movsx  eax,al
    1684:	83 ec 08             	sub    esp,0x8
    1687:	50                   	push   eax
    1688:	6a 00                	push   0x0
    168a:	e8 9c 0b 00 00       	call   222b <code+0x222b>
    168f:	83 c4 10             	add    esp,0x10
    1692:	b8 40 4e 00 00       	mov    eax,0x4e40
    1697:	83 ec 0c             	sub    esp,0xc
    169a:	50                   	push   eax
    169b:	e8 b7 1b 00 00       	call   3257 <code+0x3257>
    16a0:	83 c4 10             	add    esp,0x10
    16a3:	a1 a4 50 00 00       	mov    eax,ds:0x50a4
    16a8:	0f be c0             	movsx  eax,al
    16ab:	83 ec 08             	sub    esp,0x8
    16ae:	50                   	push   eax
    16af:	6a 00                	push   0x0
    16b1:	e8 75 0b 00 00       	call   222b <code+0x222b>
    16b6:	83 c4 10             	add    esp,0x10
    16b9:	83 ec 0c             	sub    esp,0xc
    16bc:	68 26 33 00 00       	push   0x3326
    16c1:	e8 91 1b 00 00       	call   3257 <code+0x3257>
    16c6:	83 c4 10             	add    esp,0x10
    16c9:	a1 a4 50 00 00       	mov    eax,ds:0x50a4
    16ce:	48                   	dec    eax
    16cf:	a3 a4 50 00 00       	mov    ds:0x50a4,eax
    16d4:	a0 c0 51 00 00       	mov    al,ds:0x51c0
    16d9:	0f be c0             	movsx  eax,al
    16dc:	89 44 24 0c          	mov    DWORD PTR [esp+0xc],eax
    16e0:	eb 13                	jmp    16f5 <code+0x16f5>
    16e2:	83 ec 0c             	sub    esp,0xc
    16e5:	ff 74 24 18          	push   DWORD PTR [esp+0x18]
    16e9:	e8 a4 00 00 00       	call   1792 <code+0x1792>
    16ee:	83 c4 10             	add    esp,0x10
    16f1:	ff 44 24 0c          	inc    DWORD PTR [esp+0xc]
    16f5:	a1 a4 50 00 00       	mov    eax,ds:0x50a4
    16fa:	39 44 24 0c          	cmp    DWORD PTR [esp+0xc],eax
    16fe:	7c e2                	jl     16e2 <code+0x16e2>
    1700:	83 c4 18             	add    esp,0x18
    1703:	5b                   	pop    ebx
    1704:	c3                   	ret    
    1705:	83 ec 1c             	sub    esp,0x1c
    1708:	c6 44 24 0b 00       	mov    BYTE PTR [esp+0xb],0x0
    170d:	eb 09                	jmp    1718 <code+0x1718>
    170f:	e8 74 0f 00 00       	call   2688 <code+0x2688>
    1714:	88 44 24 0b          	mov    BYTE PTR [esp+0xb],al
    1718:	80 7c 24 0b 00       	cmp    BYTE PTR [esp+0xb],0x0
    171d:	74 f0                	je     170f <code+0x170f>
    171f:	0f b6 44 24 0b       	movzx  eax,BYTE PTR [esp+0xb]
    1724:	83 f8 64             	cmp    eax,0x64
    1727:	75 50                	jne    1779 <code+0x1779>
    1729:	e8 a8 fe ff ff       	call   15d6 <code+0x15d6>
    172e:	c6 05 a0 50 00 00 00 	mov    BYTE PTR ds:0x50a0,0x0
    1735:	a0 c0 51 00 00       	mov    al,ds:0x51c0
    173a:	0f be c0             	movsx  eax,al
    173d:	8b 15 a4 50 00 00    	mov    edx,DWORD PTR ds:0x50a4
    1743:	42                   	inc    edx
    1744:	39 d0                	cmp    eax,edx
    1746:	75 14                	jne    175c <code+0x175c>
    1748:	a0 c0 51 00 00       	mov    al,ds:0x51c0
    174d:	84 c0                	test   al,al
    174f:	7e 0b                	jle    175c <code+0x175c>
    1751:	a0 c0 51 00 00       	mov    al,ds:0x51c0
    1756:	48                   	dec    eax
    1757:	a2 c0 51 00 00       	mov    ds:0x51c0,al
    175c:	a0 c0 51 00 00       	mov    al,ds:0x51c0
    1761:	0f be d0             	movsx  edx,al
    1764:	a0 a0 50 00 00       	mov    al,ds:0x50a0
    1769:	0f be c0             	movsx  eax,al
    176c:	83 ec 08             	sub    esp,0x8
    176f:	52                   	push   edx
    1770:	50                   	push   eax
    1771:	e8 b5 0a 00 00       	call   222b <code+0x222b>
    1776:	83 c4 10             	add    esp,0x10
    1779:	83 c4 1c             	add    esp,0x1c
    177c:	c3                   	ret    
    177d:	8b 44 24 04          	mov    eax,DWORD PTR [esp+0x4]
    1781:	3b 44 24 08          	cmp    eax,DWORD PTR [esp+0x8]
    1785:	7d 06                	jge    178d <code+0x178d>
    1787:	8b 44 24 08          	mov    eax,DWORD PTR [esp+0x8]
    178b:	eb 04                	jmp    1791 <code+0x1791>
    178d:	8b 44 24 04          	mov    eax,DWORD PTR [esp+0x4]
    1791:	c3                   	ret    
    1792:	83 ec 0c             	sub    esp,0xc
    1795:	8b 44 24 10          	mov    eax,DWORD PTR [esp+0x10]
    1799:	0f be c0             	movsx  eax,al
    179c:	83 ec 08             	sub    esp,0x8
    179f:	50                   	push   eax
    17a0:	6a 00                	push   0x0
    17a2:	e8 84 0a 00 00       	call   222b <code+0x222b>
    17a7:	83 c4 10             	add    esp,0x10
    17aa:	83 ec 08             	sub    esp,0x8
    17ad:	68 40 4e 00 00       	push   0x4e40
    17b2:	68 c4 32 00 00       	push   0x32c4
    17b7:	e8 9b 1a 00 00       	call   3257 <code+0x3257>
    17bc:	83 c4 10             	add    esp,0x10
    17bf:	8b 44 24 10          	mov    eax,DWORD PTR [esp+0x10]
    17c3:	0f be c0             	movsx  eax,al
    17c6:	83 ec 08             	sub    esp,0x8
    17c9:	50                   	push   eax
    17ca:	6a 00                	push   0x0
    17cc:	e8 5a 0a 00 00       	call   222b <code+0x222b>
    17d1:	83 c4 10             	add    esp,0x10
    17d4:	b9 e0 55 00 00       	mov    ecx,0x55e0
    17d9:	8b 54 24 10          	mov    edx,DWORD PTR [esp+0x10]
    17dd:	89 d0                	mov    eax,edx
    17df:	c1 e0 03             	shl    eax,0x3
    17e2:	01 d0                	add    eax,edx
    17e4:	8d 14 c5 00 00 00 00 	lea    edx,[eax*8+0x0]
    17eb:	01 d0                	add    eax,edx
    17ed:	8d 04 01             	lea    eax,[ecx+eax*1]
    17f0:	83 ec 08             	sub    esp,0x8
    17f3:	50                   	push   eax
    17f4:	68 c4 32 00 00       	push   0x32c4
    17f9:	e8 59 1a 00 00       	call   3257 <code+0x3257>
    17fe:	83 c4 10             	add    esp,0x10
    1801:	83 c4 0c             	add    esp,0xc
    1804:	c3                   	ret    
    1805:	83 ec 5c             	sub    esp,0x5c
    1808:	83 ec 08             	sub    esp,0x8
    180b:	6a 17                	push   0x17
    180d:	6a 00                	push   0x0
    180f:	e8 17 0a 00 00       	call   222b <code+0x222b>
    1814:	83 c4 10             	add    esp,0x10
    1817:	b8 41 4e 00 00       	mov    eax,0x4e41
    181c:	83 ec 0c             	sub    esp,0xc
    181f:	50                   	push   eax
    1820:	e8 32 1a 00 00       	call   3257 <code+0x3257>
    1825:	83 c4 10             	add    esp,0x10
    1828:	83 ec 08             	sub    esp,0x8
    182b:	6a 17                	push   0x17
    182d:	6a 00                	push   0x0
    182f:	e8 f7 09 00 00       	call   222b <code+0x222b>
    1834:	83 c4 10             	add    esp,0x10
    1837:	83 ec 0c             	sub    esp,0xc
    183a:	68 51 33 00 00       	push   0x3351
    183f:	e8 13 1a 00 00       	call   3257 <code+0x3257>
    1844:	83 c4 10             	add    esp,0x10
    1847:	83 ec 04             	sub    esp,0x4
    184a:	6a 01                	push   0x1
    184c:	6a b2                	push   0xffffffb2
    184e:	8d 44 24 0c          	lea    eax,[esp+0xc]
    1852:	50                   	push   eax
    1853:	e8 62 0c 00 00       	call   24ba <code+0x24ba>
    1858:	83 c4 10             	add    esp,0x10
    185b:	83 ec 08             	sub    esp,0x8
    185e:	68 53 33 00 00       	push   0x3353
    1863:	8d 44 24 0c          	lea    eax,[esp+0xc]
    1867:	50                   	push   eax
    1868:	e8 55 05 00 00       	call   1dc2 <code+0x1dc2>
    186d:	83 c4 10             	add    esp,0x10
    1870:	85 c0                	test   eax,eax
    1872:	75 3d                	jne    18b1 <code+0x18b1>
    1874:	83 ec 08             	sub    esp,0x8
    1877:	6a 17                	push   0x17
    1879:	6a 00                	push   0x0
    187b:	e8 ab 09 00 00       	call   222b <code+0x222b>
    1880:	83 c4 10             	add    esp,0x10
    1883:	83 ec 0c             	sub    esp,0xc
    1886:	68 56 33 00 00       	push   0x3356
    188b:	e8 c7 19 00 00       	call   3257 <code+0x3257>
    1890:	83 c4 10             	add    esp,0x10
    1893:	b8 c0 50 00 00       	mov    eax,0x50c0
    1898:	83 ec 0c             	sub    esp,0xc
    189b:	50                   	push   eax
    189c:	e8 59 00 00 00       	call   18fa <code+0x18fa>
    18a1:	83 c4 10             	add    esp,0x10
    18a4:	83 ec 0c             	sub    esp,0xc
    18a7:	6a 00                	push   0x0
    18a9:	e8 56 08 00 00       	call   2104 <code+0x2104>
    18ae:	83 c4 10             	add    esp,0x10
    18b1:	83 ec 08             	sub    esp,0x8
    18b4:	68 66 33 00 00       	push   0x3366
    18b9:	8d 44 24 0c          	lea    eax,[esp+0xc]
    18bd:	50                   	push   eax
    18be:	e8 ff 04 00 00       	call   1dc2 <code+0x1dc2>
    18c3:	83 c4 10             	add    esp,0x10
    18c6:	85 c0                	test   eax,eax
    18c8:	75 2c                	jne    18f6 <code+0x18f6>
    18ca:	83 ec 08             	sub    esp,0x8
    18cd:	6a 17                	push   0x17
    18cf:	6a 00                	push   0x0
    18d1:	e8 55 09 00 00       	call   222b <code+0x222b>
    18d6:	83 c4 10             	add    esp,0x10
    18d9:	83 ec 0c             	sub    esp,0xc
    18dc:	68 69 33 00 00       	push   0x3369
    18e1:	e8 71 19 00 00       	call   3257 <code+0x3257>
    18e6:	83 c4 10             	add    esp,0x10
    18e9:	83 ec 0c             	sub    esp,0xc
    18ec:	6a 00                	push   0x0
    18ee:	e8 11 08 00 00       	call   2104 <code+0x2104>
    18f3:	83 c4 10             	add    esp,0x10
    18f6:	83 c4 5c             	add    esp,0x5c
    18f9:	c3                   	ret    
    18fa:	83 ec 1c             	sub    esp,0x1c
    18fd:	83 ec 0c             	sub    esp,0xc
    1900:	ff 74 24 2c          	push   DWORD PTR [esp+0x2c]
    1904:	e8 73 0b 00 00       	call   247c <code+0x247c>
    1909:	83 c4 10             	add    esp,0x10
    190c:	b8 c0 50 00 00       	mov    eax,0x50c0
    1911:	83 ec 08             	sub    esp,0x8
    1914:	68 01 02 00 00       	push   0x201
    1919:	50                   	push   eax
    191a:	e8 53 0a 00 00       	call   2372 <code+0x2372>
    191f:	83 c4 10             	add    esp,0x10
    1922:	89 44 24 08          	mov    DWORD PTR [esp+0x8],eax
    1926:	c7 44 24 0c 00 00 00 	mov    DWORD PTR [esp+0xc],0x0
    192d:	00 
    192e:	eb 6e                	jmp    199e <code+0x199e>
    1930:	b9 e0 55 00 00       	mov    ecx,0x55e0
    1935:	8b 54 24 0c          	mov    edx,DWORD PTR [esp+0xc]
    1939:	89 d0                	mov    eax,edx
    193b:	c1 e0 03             	shl    eax,0x3
    193e:	01 d0                	add    eax,edx
    1940:	8d 14 c5 00 00 00 00 	lea    edx,[eax*8+0x0]
    1947:	01 d0                	add    eax,edx
    1949:	8d 04 01             	lea    eax,[ecx+eax*1]
    194c:	83 ec 0c             	sub    esp,0xc
    194f:	50                   	push   eax
    1950:	e8 46 04 00 00       	call   1d9b <code+0x1d9b>
    1955:	83 c4 10             	add    esp,0x10
    1958:	89 c2                	mov    edx,eax
    195a:	8b 4c 24 0c          	mov    ecx,DWORD PTR [esp+0xc]
    195e:	89 c8                	mov    eax,ecx
    1960:	c1 e0 03             	shl    eax,0x3
    1963:	01 c8                	add    eax,ecx
    1965:	8d 0c c5 00 00 00 00 	lea    ecx,[eax*8+0x0]
    196c:	01 c8                	add    eax,ecx
    196e:	05 e0 55 00 00       	add    eax,0x55e0
    1973:	83 ec 04             	sub    esp,0x4
    1976:	52                   	push   edx
    1977:	50                   	push   eax
    1978:	ff 74 24 14          	push   DWORD PTR [esp+0x14]
    197c:	e8 41 0a 00 00       	call   23c2 <code+0x23c2>
    1981:	83 c4 10             	add    esp,0x10
    1984:	83 ec 04             	sub    esp,0x4
    1987:	6a 01                	push   0x1
    1989:	68 d4 32 00 00       	push   0x32d4
    198e:	ff 74 24 14          	push   DWORD PTR [esp+0x14]
    1992:	e8 2b 0a 00 00       	call   23c2 <code+0x23c2>
    1997:	83 c4 10             	add    esp,0x10
    199a:	ff 44 24 0c          	inc    DWORD PTR [esp+0xc]
    199e:	a1 a4 50 00 00       	mov    eax,ds:0x50a4
    19a3:	40                   	inc    eax
    19a4:	3b 44 24 0c          	cmp    eax,DWORD PTR [esp+0xc]
    19a8:	7f 86                	jg     1930 <code+0x1930>
    19aa:	83 ec 0c             	sub    esp,0xc
    19ad:	ff 74 24 14          	push   DWORD PTR [esp+0x14]
    19b1:	e8 e5 09 00 00       	call   239b <code+0x239b>
    19b6:	83 c4 10             	add    esp,0x10
    19b9:	83 c4 1c             	add    esp,0x1c
    19bc:	c3                   	ret    
    19bd:	53                   	push   ebx
    19be:	83 ec 18             	sub    esp,0x18
    19c1:	a1 a4 50 00 00       	mov    eax,ds:0x50a4
    19c6:	89 44 24 0c          	mov    DWORD PTR [esp+0xc],eax
    19ca:	eb 4d                	jmp    1a19 <code+0x1a19>
    19cc:	8b 44 24 0c          	mov    eax,DWORD PTR [esp+0xc]
    19d0:	8d 50 ff             	lea    edx,[eax-0x1]
    19d3:	89 d0                	mov    eax,edx
    19d5:	c1 e0 03             	shl    eax,0x3
    19d8:	01 d0                	add    eax,edx
    19da:	8d 14 c5 00 00 00 00 	lea    edx,[eax*8+0x0]
    19e1:	01 d0                	add    eax,edx
    19e3:	05 e0 55 00 00       	add    eax,0x55e0
    19e8:	89 c2                	mov    edx,eax
    19ea:	bb e0 55 00 00       	mov    ebx,0x55e0
    19ef:	8b 4c 24 0c          	mov    ecx,DWORD PTR [esp+0xc]
    19f3:	89 c8                	mov    eax,ecx
    19f5:	c1 e0 03             	shl    eax,0x3
    19f8:	01 c8                	add    eax,ecx
    19fa:	8d 0c c5 00 00 00 00 	lea    ecx,[eax*8+0x0]
    1a01:	01 c8                	add    eax,ecx
    1a03:	8d 04 03             	lea    eax,[ebx+eax*1]
    1a06:	83 ec 04             	sub    esp,0x4
    1a09:	6a 50                	push   0x50
    1a0b:	52                   	push   edx
    1a0c:	50                   	push   eax
    1a0d:	e8 cf 04 00 00       	call   1ee1 <code+0x1ee1>
    1a12:	83 c4 10             	add    esp,0x10
    1a15:	ff 4c 24 0c          	dec    DWORD PTR [esp+0xc]
    1a19:	a0 a0 50 00 00       	mov    al,ds:0x50a0
    1a1e:	0f be c0             	movsx  eax,al
    1a21:	40                   	inc    eax
    1a22:	3b 44 24 0c          	cmp    eax,DWORD PTR [esp+0xc]
    1a26:	7c a4                	jl     19cc <code+0x19cc>
    1a28:	b9 e0 55 00 00       	mov    ecx,0x55e0
    1a2d:	a0 c0 51 00 00       	mov    al,ds:0x51c0
    1a32:	0f be d0             	movsx  edx,al
    1a35:	89 d0                	mov    eax,edx
    1a37:	c1 e0 03             	shl    eax,0x3
    1a3a:	01 d0                	add    eax,edx
    1a3c:	8d 14 c5 00 00 00 00 	lea    edx,[eax*8+0x0]
    1a43:	8d 14 10             	lea    edx,[eax+edx*1]
    1a46:	a0 a0 50 00 00       	mov    al,ds:0x50a0
    1a4b:	0f be c0             	movsx  eax,al
    1a4e:	8d 04 02             	lea    eax,[edx+eax*1]
    1a51:	8d 14 01             	lea    edx,[ecx+eax*1]
    1a54:	a0 c0 51 00 00       	mov    al,ds:0x51c0
    1a59:	0f be c0             	movsx  eax,al
    1a5c:	8d 48 01             	lea    ecx,[eax+0x1]
    1a5f:	89 c8                	mov    eax,ecx
    1a61:	c1 e0 03             	shl    eax,0x3
    1a64:	01 c8                	add    eax,ecx
    1a66:	8d 0c c5 00 00 00 00 	lea    ecx,[eax*8+0x0]
    1a6d:	01 c8                	add    eax,ecx
    1a6f:	05 e0 55 00 00       	add    eax,0x55e0
    1a74:	83 ec 04             	sub    esp,0x4
    1a77:	6a 50                	push   0x50
    1a79:	52                   	push   edx
    1a7a:	50                   	push   eax
    1a7b:	e8 61 04 00 00       	call   1ee1 <code+0x1ee1>
    1a80:	83 c4 10             	add    esp,0x10
    1a83:	a0 c0 51 00 00       	mov    al,ds:0x51c0
    1a88:	0f be d0             	movsx  edx,al
    1a8b:	a0 a0 50 00 00       	mov    al,ds:0x50a0
    1a90:	0f be c8             	movsx  ecx,al
    1a93:	89 d0                	mov    eax,edx
    1a95:	c1 e0 03             	shl    eax,0x3
    1a98:	01 d0                	add    eax,edx
    1a9a:	8d 14 c5 00 00 00 00 	lea    edx,[eax*8+0x0]
    1aa1:	01 d0                	add    eax,edx
    1aa3:	01 c8                	add    eax,ecx
    1aa5:	05 e0 55 00 00       	add    eax,0x55e0
    1aaa:	c6 00 00             	mov    BYTE PTR [eax],0x0
    1aad:	a1 a4 50 00 00       	mov    eax,ds:0x50a4
    1ab2:	40                   	inc    eax
    1ab3:	a3 a4 50 00 00       	mov    ds:0x50a4,eax
    1ab8:	c6 05 a0 50 00 00 00 	mov    BYTE PTR ds:0x50a0,0x0
    1abf:	a0 c0 51 00 00       	mov    al,ds:0x51c0
    1ac4:	40                   	inc    eax
    1ac5:	a2 c0 51 00 00       	mov    ds:0x51c0,al
    1aca:	a0 c0 51 00 00       	mov    al,ds:0x51c0
    1acf:	0f be d0             	movsx  edx,al
    1ad2:	a0 a0 50 00 00       	mov    al,ds:0x50a0
    1ad7:	0f be c0             	movsx  eax,al
    1ada:	83 ec 08             	sub    esp,0x8
    1add:	52                   	push   edx
    1ade:	50                   	push   eax
    1adf:	e8 47 07 00 00       	call   222b <code+0x222b>
    1ae4:	83 c4 10             	add    esp,0x10
    1ae7:	83 c4 18             	add    esp,0x18
    1aea:	5b                   	pop    ebx
    1aeb:	c3                   	ret    
    1aec:	53                   	push   ebx
    1aed:	83 ec 18             	sub    esp,0x18
    1af0:	a0 c0 51 00 00       	mov    al,ds:0x51c0
    1af5:	0f be c0             	movsx  eax,al
    1af8:	8d 50 ff             	lea    edx,[eax-0x1]
    1afb:	89 d0                	mov    eax,edx
    1afd:	c1 e0 03             	shl    eax,0x3
    1b00:	01 d0                	add    eax,edx
    1b02:	8d 14 c5 00 00 00 00 	lea    edx,[eax*8+0x0]
    1b09:	01 d0                	add    eax,edx
    1b0b:	05 e0 55 00 00       	add    eax,0x55e0
    1b10:	83 ec 0c             	sub    esp,0xc
    1b13:	50                   	push   eax
    1b14:	e8 82 02 00 00       	call   1d9b <code+0x1d9b>
    1b19:	83 c4 10             	add    esp,0x10
    1b1c:	89 44 24 0c          	mov    DWORD PTR [esp+0xc],eax
    1b20:	b8 50 00 00 00       	mov    eax,0x50
    1b25:	89 c2                	mov    edx,eax
    1b27:	2b 54 24 0c          	sub    edx,DWORD PTR [esp+0xc]
    1b2b:	bb e0 55 00 00       	mov    ebx,0x55e0
    1b30:	a0 c0 51 00 00       	mov    al,ds:0x51c0
    1b35:	0f be c8             	movsx  ecx,al
    1b38:	89 c8                	mov    eax,ecx
    1b3a:	c1 e0 03             	shl    eax,0x3
    1b3d:	01 c8                	add    eax,ecx
    1b3f:	8d 0c c5 00 00 00 00 	lea    ecx,[eax*8+0x0]
    1b46:	01 c8                	add    eax,ecx
    1b48:	8d 0c 03             	lea    ecx,[ebx+eax*1]
    1b4b:	a0 c0 51 00 00       	mov    al,ds:0x51c0
    1b50:	0f be c0             	movsx  eax,al
    1b53:	8d 58 ff             	lea    ebx,[eax-0x1]
    1b56:	89 d8                	mov    eax,ebx
    1b58:	c1 e0 03             	shl    eax,0x3
    1b5b:	01 d8                	add    eax,ebx
    1b5d:	8d 1c c5 00 00 00 00 	lea    ebx,[eax*8+0x0]
    1b64:	8d 1c 18             	lea    ebx,[eax+ebx*1]
    1b67:	8b 44 24 0c          	mov    eax,DWORD PTR [esp+0xc]
    1b6b:	8d 04 03             	lea    eax,[ebx+eax*1]
    1b6e:	05 e0 55 00 00       	add    eax,0x55e0
    1b73:	83 ec 04             	sub    esp,0x4
    1b76:	52                   	push   edx
    1b77:	51                   	push   ecx
    1b78:	50                   	push   eax
    1b79:	e8 63 03 00 00       	call   1ee1 <code+0x1ee1>
    1b7e:	83 c4 10             	add    esp,0x10
    1b81:	e8 50 fa ff ff       	call   15d6 <code+0x15d6>
    1b86:	a0 c0 51 00 00       	mov    al,ds:0x51c0
    1b8b:	48                   	dec    eax
    1b8c:	a2 c0 51 00 00       	mov    ds:0x51c0,al
    1b91:	8b 44 24 0c          	mov    eax,DWORD PTR [esp+0xc]
    1b95:	a2 a0 50 00 00       	mov    ds:0x50a0,al
    1b9a:	a0 c0 51 00 00       	mov    al,ds:0x51c0
    1b9f:	0f be d0             	movsx  edx,al
    1ba2:	a0 a0 50 00 00       	mov    al,ds:0x50a0
    1ba7:	0f be c0             	movsx  eax,al
    1baa:	83 ec 08             	sub    esp,0x8
    1bad:	52                   	push   edx
    1bae:	50                   	push   eax
    1baf:	e8 77 06 00 00       	call   222b <code+0x222b>
    1bb4:	83 c4 10             	add    esp,0x10
    1bb7:	83 c4 18             	add    esp,0x18
    1bba:	5b                   	pop    ebx
    1bbb:	c3                   	ret    
    1bbc:	81 ec 1c 01 00 00    	sub    esp,0x11c
    1bc2:	83 ec 0c             	sub    esp,0xc
    1bc5:	ff b4 24 2c 01 00 00 	push   DWORD PTR [esp+0x12c]
    1bcc:	e8 ca 01 00 00       	call   1d9b <code+0x1d9b>
    1bd1:	83 c4 10             	add    esp,0x10
    1bd4:	83 f8 01             	cmp    eax,0x1
    1bd7:	75 44                	jne    1c1d <code+0x1c1d>
    1bd9:	8b 84 24 20 01 00 00 	mov    eax,DWORD PTR [esp+0x120]
    1be0:	8a 00                	mov    al,BYTE PTR [eax]
    1be2:	3c 2f                	cmp    al,0x2f
    1be4:	75 37                	jne    1c1d <code+0x1c1d>
    1be6:	83 ec 04             	sub    esp,0x4
    1be9:	6a 01                	push   0x1
    1beb:	68 70 33 00 00       	push   0x3370
    1bf0:	ff b4 24 30 01 00 00 	push   DWORD PTR [esp+0x130]
    1bf7:	e8 e5 02 00 00       	call   1ee1 <code+0x1ee1>
    1bfc:	83 c4 10             	add    esp,0x10
    1bff:	83 ec 04             	sub    esp,0x4
    1c02:	6a 01                	push   0x1
    1c04:	68 70 33 00 00       	push   0x3370
    1c09:	ff b4 24 34 01 00 00 	push   DWORD PTR [esp+0x134]
    1c10:	e8 cc 02 00 00       	call   1ee1 <code+0x1ee1>
    1c15:	83 c4 10             	add    esp,0x10
    1c18:	e9 2d 01 00 00       	jmp    1d4a <code+0x1d4a>
    1c1d:	83 ec 04             	sub    esp,0x4
    1c20:	68 00 01 00 00       	push   0x100
    1c25:	ff b4 24 28 01 00 00 	push   DWORD PTR [esp+0x128]
    1c2c:	8d 44 24 18          	lea    eax,[esp+0x18]
    1c30:	50                   	push   eax
    1c31:	e8 ab 02 00 00       	call   1ee1 <code+0x1ee1>
    1c36:	83 c4 10             	add    esp,0x10
    1c39:	83 ec 0c             	sub    esp,0xc
    1c3c:	8d 44 24 18          	lea    eax,[esp+0x18]
    1c40:	50                   	push   eax
    1c41:	e8 55 01 00 00       	call   1d9b <code+0x1d9b>
    1c46:	83 c4 10             	add    esp,0x10
    1c49:	48                   	dec    eax
    1c4a:	89 84 24 0c 01 00 00 	mov    DWORD PTR [esp+0x10c],eax
    1c51:	8b 84 24 0c 01 00 00 	mov    eax,DWORD PTR [esp+0x10c]
    1c58:	8a 44 04 0c          	mov    al,BYTE PTR [esp+eax*1+0xc]
    1c5c:	3c 2f                	cmp    al,0x2f
    1c5e:	75 16                	jne    1c76 <code+0x1c76>
    1c60:	8b 84 24 0c 01 00 00 	mov    eax,DWORD PTR [esp+0x10c]
    1c67:	c6 44 04 0c 00       	mov    BYTE PTR [esp+eax*1+0xc],0x0
    1c6c:	ff 8c 24 0c 01 00 00 	dec    DWORD PTR [esp+0x10c]
    1c73:	eb 01                	jmp    1c76 <code+0x1c76>
    1c75:	90                   	nop
    1c76:	ff 8c 24 0c 01 00 00 	dec    DWORD PTR [esp+0x10c]
    1c7d:	83 bc 24 0c 01 00 00 	cmp    DWORD PTR [esp+0x10c],0xffffffff
    1c84:	ff 
    1c85:	75 3a                	jne    1cc1 <code+0x1cc1>
    1c87:	83 ec 04             	sub    esp,0x4
    1c8a:	6a 02                	push   0x2
    1c8c:	68 72 33 00 00       	push   0x3372
    1c91:	ff b4 24 30 01 00 00 	push   DWORD PTR [esp+0x130]
    1c98:	e8 44 02 00 00       	call   1ee1 <code+0x1ee1>
    1c9d:	83 c4 10             	add    esp,0x10
    1ca0:	83 ec 04             	sub    esp,0x4
    1ca3:	68 00 01 00 00       	push   0x100
    1ca8:	8d 44 24 14          	lea    eax,[esp+0x14]
    1cac:	50                   	push   eax
    1cad:	ff b4 24 34 01 00 00 	push   DWORD PTR [esp+0x134]
    1cb4:	e8 28 02 00 00       	call   1ee1 <code+0x1ee1>
    1cb9:	83 c4 10             	add    esp,0x10
    1cbc:	e9 89 00 00 00       	jmp    1d4a <code+0x1d4a>
    1cc1:	8b 84 24 0c 01 00 00 	mov    eax,DWORD PTR [esp+0x10c]
    1cc8:	8a 44 04 0c          	mov    al,BYTE PTR [esp+eax*1+0xc]
    1ccc:	3c 2f                	cmp    al,0x2f
    1cce:	75 a5                	jne    1c75 <code+0x1c75>
    1cd0:	83 bc 24 0c 01 00 00 	cmp    DWORD PTR [esp+0x10c],0x0
    1cd7:	00 
    1cd8:	75 1b                	jne    1cf5 <code+0x1cf5>
    1cda:	83 ec 04             	sub    esp,0x4
    1cdd:	6a 02                	push   0x2
    1cdf:	68 70 33 00 00       	push   0x3370
    1ce4:	ff b4 24 30 01 00 00 	push   DWORD PTR [esp+0x130]
    1ceb:	e8 f1 01 00 00       	call   1ee1 <code+0x1ee1>
    1cf0:	83 c4 10             	add    esp,0x10
    1cf3:	eb 2f                	jmp    1d24 <code+0x1d24>
    1cf5:	83 ec 04             	sub    esp,0x4
    1cf8:	ff b4 24 10 01 00 00 	push   DWORD PTR [esp+0x110]
    1cff:	8d 44 24 14          	lea    eax,[esp+0x14]
    1d03:	50                   	push   eax
    1d04:	ff b4 24 30 01 00 00 	push   DWORD PTR [esp+0x130]
    1d0b:	e8 b4 02 00 00       	call   1fc4 <code+0x1fc4>
    1d10:	83 c4 10             	add    esp,0x10
    1d13:	8b 84 24 0c 01 00 00 	mov    eax,DWORD PTR [esp+0x10c]
    1d1a:	03 84 24 24 01 00 00 	add    eax,DWORD PTR [esp+0x124]
    1d21:	c6 00 00             	mov    BYTE PTR [eax],0x0
    1d24:	8b 84 24 0c 01 00 00 	mov    eax,DWORD PTR [esp+0x10c]
    1d2b:	8d 50 01             	lea    edx,[eax+0x1]
    1d2e:	8d 44 24 0c          	lea    eax,[esp+0xc]
    1d32:	01 d0                	add    eax,edx
    1d34:	83 ec 04             	sub    esp,0x4
    1d37:	6a 1e                	push   0x1e
    1d39:	50                   	push   eax
    1d3a:	ff b4 24 34 01 00 00 	push   DWORD PTR [esp+0x134]
    1d41:	e8 9b 01 00 00       	call   1ee1 <code+0x1ee1>
    1d46:	83 c4 10             	add    esp,0x10
    1d49:	90                   	nop
    1d4a:	81 c4 1c 01 00 00    	add    esp,0x11c
    1d50:	c3                   	ret    
    1d51:	83 ec 0c             	sub    esp,0xc
    1d54:	83 ec 04             	sub    esp,0x4
    1d57:	68 60 5f 00 00       	push   0x5f60
    1d5c:	68 60 5e 00 00       	push   0x5e60
    1d61:	ff 74 24 1c          	push   DWORD PTR [esp+0x1c]
    1d65:	e8 52 fe ff ff       	call   1bbc <code+0x1bbc>
    1d6a:	83 c4 10             	add    esp,0x10
    1d6d:	b8 60 5f 00 00       	mov    eax,0x5f60
    1d72:	83 c4 0c             	add    esp,0xc
    1d75:	c3                   	ret    
    1d76:	83 ec 0c             	sub    esp,0xc
    1d79:	83 ec 04             	sub    esp,0x4
    1d7c:	68 40 5e 00 00       	push   0x5e40
    1d81:	68 40 5d 00 00       	push   0x5d40
    1d86:	ff 74 24 1c          	push   DWORD PTR [esp+0x1c]
    1d8a:	e8 2d fe ff ff       	call   1bbc <code+0x1bbc>
    1d8f:	83 c4 10             	add    esp,0x10
    1d92:	b8 40 5d 00 00       	mov    eax,0x5d40
    1d97:	83 c4 0c             	add    esp,0xc
    1d9a:	c3                   	ret    
    1d9b:	83 ec 10             	sub    esp,0x10
    1d9e:	c7 44 24 0c 00 00 00 	mov    DWORD PTR [esp+0xc],0x0
    1da5:	00 
    1da6:	eb 08                	jmp    1db0 <code+0x1db0>
    1da8:	ff 44 24 0c          	inc    DWORD PTR [esp+0xc]
    1dac:	ff 44 24 14          	inc    DWORD PTR [esp+0x14]
    1db0:	8b 44 24 14          	mov    eax,DWORD PTR [esp+0x14]
    1db4:	8a 00                	mov    al,BYTE PTR [eax]
    1db6:	84 c0                	test   al,al
    1db8:	75 ee                	jne    1da8 <code+0x1da8>
    1dba:	8b 44 24 0c          	mov    eax,DWORD PTR [esp+0xc]
    1dbe:	83 c4 10             	add    esp,0x10
    1dc1:	c3                   	ret    
    1dc2:	83 ec 10             	sub    esp,0x10
    1dc5:	eb 08                	jmp    1dcf <code+0x1dcf>
    1dc7:	ff 44 24 14          	inc    DWORD PTR [esp+0x14]
    1dcb:	ff 44 24 18          	inc    DWORD PTR [esp+0x18]
    1dcf:	8b 44 24 14          	mov    eax,DWORD PTR [esp+0x14]
    1dd3:	8a 00                	mov    al,BYTE PTR [eax]
    1dd5:	84 c0                	test   al,al
    1dd7:	74 10                	je     1de9 <code+0x1de9>
    1dd9:	8b 44 24 14          	mov    eax,DWORD PTR [esp+0x14]
    1ddd:	8a 10                	mov    dl,BYTE PTR [eax]
    1ddf:	8b 44 24 18          	mov    eax,DWORD PTR [esp+0x18]
    1de3:	8a 00                	mov    al,BYTE PTR [eax]
    1de5:	38 c2                	cmp    dl,al
    1de7:	74 de                	je     1dc7 <code+0x1dc7>
    1de9:	8b 44 24 14          	mov    eax,DWORD PTR [esp+0x14]
    1ded:	8a 00                	mov    al,BYTE PTR [eax]
    1def:	88 44 24 0e          	mov    BYTE PTR [esp+0xe],al
    1df3:	8b 44 24 18          	mov    eax,DWORD PTR [esp+0x18]
    1df7:	8a 00                	mov    al,BYTE PTR [eax]
    1df9:	88 44 24 0f          	mov    BYTE PTR [esp+0xf],al
    1dfd:	8a 44 24 0e          	mov    al,BYTE PTR [esp+0xe]
    1e01:	3a 44 24 0f          	cmp    al,BYTE PTR [esp+0xf]
    1e05:	72 10                	jb     1e17 <code+0x1e17>
    1e07:	8a 44 24 0e          	mov    al,BYTE PTR [esp+0xe]
    1e0b:	3a 44 24 0f          	cmp    al,BYTE PTR [esp+0xf]
    1e0f:	0f 97 c0             	seta   al
    1e12:	0f b6 c0             	movzx  eax,al
    1e15:	eb 05                	jmp    1e1c <code+0x1e1c>
    1e17:	b8 ff ff ff ff       	mov    eax,0xffffffff
    1e1c:	83 c4 10             	add    esp,0x10
    1e1f:	c3                   	ret    
    1e20:	83 ec 10             	sub    esp,0x10
    1e23:	83 7c 24 1c 00       	cmp    DWORD PTR [esp+0x1c],0x0
    1e28:	75 29                	jne    1e53 <code+0x1e53>
    1e2a:	b8 00 00 00 00       	mov    eax,0x0
    1e2f:	eb 76                	jmp    1ea7 <code+0x1ea7>
    1e31:	83 7c 24 1c 00       	cmp    DWORD PTR [esp+0x1c],0x0
    1e36:	74 0a                	je     1e42 <code+0x1e42>
    1e38:	8b 44 24 14          	mov    eax,DWORD PTR [esp+0x14]
    1e3c:	8a 00                	mov    al,BYTE PTR [eax]
    1e3e:	84 c0                	test   al,al
    1e40:	75 07                	jne    1e49 <code+0x1e49>
    1e42:	b8 00 00 00 00       	mov    eax,0x0
    1e47:	eb 5e                	jmp    1ea7 <code+0x1ea7>
    1e49:	ff 44 24 14          	inc    DWORD PTR [esp+0x14]
    1e4d:	ff 44 24 18          	inc    DWORD PTR [esp+0x18]
    1e51:	eb 01                	jmp    1e54 <code+0x1e54>
    1e53:	90                   	nop
    1e54:	83 7c 24 1c 00       	cmp    DWORD PTR [esp+0x1c],0x0
    1e59:	0f 95 c0             	setne  al
    1e5c:	ff 4c 24 1c          	dec    DWORD PTR [esp+0x1c]
    1e60:	84 c0                	test   al,al
    1e62:	74 10                	je     1e74 <code+0x1e74>
    1e64:	8b 44 24 14          	mov    eax,DWORD PTR [esp+0x14]
    1e68:	8a 10                	mov    dl,BYTE PTR [eax]
    1e6a:	8b 44 24 18          	mov    eax,DWORD PTR [esp+0x18]
    1e6e:	8a 00                	mov    al,BYTE PTR [eax]
    1e70:	38 c2                	cmp    dl,al
    1e72:	74 bd                	je     1e31 <code+0x1e31>
    1e74:	8b 44 24 14          	mov    eax,DWORD PTR [esp+0x14]
    1e78:	8a 00                	mov    al,BYTE PTR [eax]
    1e7a:	88 44 24 0e          	mov    BYTE PTR [esp+0xe],al
    1e7e:	8b 44 24 18          	mov    eax,DWORD PTR [esp+0x18]
    1e82:	8a 00                	mov    al,BYTE PTR [eax]
    1e84:	88 44 24 0f          	mov    BYTE PTR [esp+0xf],al
    1e88:	8a 44 24 0e          	mov    al,BYTE PTR [esp+0xe]
    1e8c:	3a 44 24 0f          	cmp    al,BYTE PTR [esp+0xf]
    1e90:	72 10                	jb     1ea2 <code+0x1ea2>
    1e92:	8a 44 24 0e          	mov    al,BYTE PTR [esp+0xe]
    1e96:	3a 44 24 0f          	cmp    al,BYTE PTR [esp+0xf]
    1e9a:	0f 97 c0             	seta   al
    1e9d:	0f b6 c0             	movzx  eax,al
    1ea0:	eb 05                	jmp    1ea7 <code+0x1ea7>
    1ea2:	b8 ff ff ff ff       	mov    eax,0xffffffff
    1ea7:	83 c4 10             	add    esp,0x10
    1eaa:	c3                   	ret    
    1eab:	83 ec 10             	sub    esp,0x10
    1eae:	8b 44 24 14          	mov    eax,DWORD PTR [esp+0x14]
    1eb2:	89 44 24 0c          	mov    DWORD PTR [esp+0xc],eax
    1eb6:	8b 44 24 18          	mov    eax,DWORD PTR [esp+0x18]
    1eba:	8a 10                	mov    dl,BYTE PTR [eax]
    1ebc:	8b 44 24 14          	mov    eax,DWORD PTR [esp+0x14]
    1ec0:	88 10                	mov    BYTE PTR [eax],dl
    1ec2:	8b 44 24 14          	mov    eax,DWORD PTR [esp+0x14]
    1ec6:	8a 00                	mov    al,BYTE PTR [eax]
    1ec8:	84 c0                	test   al,al
    1eca:	0f 95 c0             	setne  al
    1ecd:	ff 44 24 14          	inc    DWORD PTR [esp+0x14]
    1ed1:	ff 44 24 18          	inc    DWORD PTR [esp+0x18]
    1ed5:	84 c0                	test   al,al
    1ed7:	75 dd                	jne    1eb6 <code+0x1eb6>
    1ed9:	8b 44 24 0c          	mov    eax,DWORD PTR [esp+0xc]
    1edd:	83 c4 10             	add    esp,0x10
    1ee0:	c3                   	ret    
    1ee1:	83 ec 10             	sub    esp,0x10
    1ee4:	8b 44 24 18          	mov    eax,DWORD PTR [esp+0x18]
    1ee8:	89 44 24 08          	mov    DWORD PTR [esp+0x8],eax
    1eec:	8b 44 24 14          	mov    eax,DWORD PTR [esp+0x14]
    1ef0:	89 44 24 0c          	mov    DWORD PTR [esp+0xc],eax
    1ef4:	eb 22                	jmp    1f18 <code+0x1f18>
    1ef6:	8b 44 24 08          	mov    eax,DWORD PTR [esp+0x8]
    1efa:	8a 10                	mov    dl,BYTE PTR [eax]
    1efc:	8b 44 24 0c          	mov    eax,DWORD PTR [esp+0xc]
    1f00:	88 10                	mov    BYTE PTR [eax],dl
    1f02:	8b 44 24 0c          	mov    eax,DWORD PTR [esp+0xc]
    1f06:	8a 00                	mov    al,BYTE PTR [eax]
    1f08:	84 c0                	test   al,al
    1f0a:	74 15                	je     1f21 <code+0x1f21>
    1f0c:	ff 44 24 0c          	inc    DWORD PTR [esp+0xc]
    1f10:	ff 44 24 08          	inc    DWORD PTR [esp+0x8]
    1f14:	ff 4c 24 1c          	dec    DWORD PTR [esp+0x1c]
    1f18:	83 7c 24 1c 00       	cmp    DWORD PTR [esp+0x1c],0x0
    1f1d:	75 d7                	jne    1ef6 <code+0x1ef6>
    1f1f:	eb 01                	jmp    1f22 <code+0x1f22>
    1f21:	90                   	nop
    1f22:	8b 44 24 14          	mov    eax,DWORD PTR [esp+0x14]
    1f26:	83 c4 10             	add    esp,0x10
    1f29:	c3                   	ret    
    1f2a:	83 ec 10             	sub    esp,0x10
    1f2d:	c7 44 24 0c 00 00 00 	mov    DWORD PTR [esp+0xc],0x0
    1f34:	00 
    1f35:	eb 26                	jmp    1f5d <code+0x1f5d>
    1f37:	8b 54 24 0c          	mov    edx,DWORD PTR [esp+0xc]
    1f3b:	89 d0                	mov    eax,edx
    1f3d:	c1 e0 02             	shl    eax,0x2
    1f40:	01 d0                	add    eax,edx
    1f42:	d1 e0                	shl    eax,1
    1f44:	89 c2                	mov    edx,eax
    1f46:	8b 44 24 14          	mov    eax,DWORD PTR [esp+0x14]
    1f4a:	8a 00                	mov    al,BYTE PTR [eax]
    1f4c:	0f be c0             	movsx  eax,al
    1f4f:	83 e8 30             	sub    eax,0x30
    1f52:	8d 04 02             	lea    eax,[edx+eax*1]
    1f55:	89 44 24 0c          	mov    DWORD PTR [esp+0xc],eax
    1f59:	ff 44 24 14          	inc    DWORD PTR [esp+0x14]
    1f5d:	8b 44 24 14          	mov    eax,DWORD PTR [esp+0x14]
    1f61:	8a 00                	mov    al,BYTE PTR [eax]
    1f63:	3c 2f                	cmp    al,0x2f
    1f65:	7e 0a                	jle    1f71 <code+0x1f71>
    1f67:	8b 44 24 14          	mov    eax,DWORD PTR [esp+0x14]
    1f6b:	8a 00                	mov    al,BYTE PTR [eax]
    1f6d:	3c 39                	cmp    al,0x39
    1f6f:	7e c6                	jle    1f37 <code+0x1f37>
    1f71:	8b 44 24 0c          	mov    eax,DWORD PTR [esp+0xc]
    1f75:	83 c4 10             	add    esp,0x10
    1f78:	c3                   	ret    
    1f79:	83 ec 10             	sub    esp,0x10
    1f7c:	c7 44 24 0c 00 00 00 	mov    DWORD PTR [esp+0xc],0x0
    1f83:	00 
    1f84:	eb 22                	jmp    1fa8 <code+0x1fa8>
    1f86:	8b 44 24 0c          	mov    eax,DWORD PTR [esp+0xc]
    1f8a:	8d 14 c5 00 00 00 00 	lea    edx,[eax*8+0x0]
    1f91:	8b 44 24 14          	mov    eax,DWORD PTR [esp+0x14]
    1f95:	8a 00                	mov    al,BYTE PTR [eax]
    1f97:	0f be c0             	movsx  eax,al
    1f9a:	83 e8 30             	sub    eax,0x30
    1f9d:	8d 04 02             	lea    eax,[edx+eax*1]
    1fa0:	89 44 24 0c          	mov    DWORD PTR [esp+0xc],eax
    1fa4:	ff 44 24 14          	inc    DWORD PTR [esp+0x14]
    1fa8:	8b 44 24 14          	mov    eax,DWORD PTR [esp+0x14]
    1fac:	8a 00                	mov    al,BYTE PTR [eax]
    1fae:	3c 2f                	cmp    al,0x2f
    1fb0:	7e 0a                	jle    1fbc <code+0x1fbc>
    1fb2:	8b 44 24 14          	mov    eax,DWORD PTR [esp+0x14]
    1fb6:	8a 00                	mov    al,BYTE PTR [eax]
    1fb8:	3c 37                	cmp    al,0x37
    1fba:	7e ca                	jle    1f86 <code+0x1f86>
    1fbc:	8b 44 24 0c          	mov    eax,DWORD PTR [esp+0xc]
    1fc0:	83 c4 10             	add    esp,0x10
    1fc3:	c3                   	ret    
    1fc4:	83 ec 10             	sub    esp,0x10
    1fc7:	8b 44 24 18          	mov    eax,DWORD PTR [esp+0x18]
    1fcb:	89 44 24 08          	mov    DWORD PTR [esp+0x8],eax
    1fcf:	8b 44 24 14          	mov    eax,DWORD PTR [esp+0x14]
    1fd3:	89 44 24 0c          	mov    DWORD PTR [esp+0xc],eax
    1fd7:	eb 18                	jmp    1ff1 <code+0x1ff1>
    1fd9:	8b 44 24 08          	mov    eax,DWORD PTR [esp+0x8]
    1fdd:	8a 10                	mov    dl,BYTE PTR [eax]
    1fdf:	8b 44 24 0c          	mov    eax,DWORD PTR [esp+0xc]
    1fe3:	88 10                	mov    BYTE PTR [eax],dl
    1fe5:	ff 44 24 0c          	inc    DWORD PTR [esp+0xc]
    1fe9:	ff 44 24 08          	inc    DWORD PTR [esp+0x8]
    1fed:	ff 4c 24 1c          	dec    DWORD PTR [esp+0x1c]
    1ff1:	83 7c 24 1c 00       	cmp    DWORD PTR [esp+0x1c],0x0
    1ff6:	75 e1                	jne    1fd9 <code+0x1fd9>
    1ff8:	8b 44 24 14          	mov    eax,DWORD PTR [esp+0x14]
    1ffc:	83 c4 10             	add    esp,0x10
    1fff:	c3                   	ret    
    2000:	83 ec 14             	sub    esp,0x14
    2003:	8b 44 24 1c          	mov    eax,DWORD PTR [esp+0x1c]
    2007:	88 04 24             	mov    BYTE PTR [esp],al
    200a:	8b 44 24 18          	mov    eax,DWORD PTR [esp+0x18]
    200e:	89 44 24 10          	mov    DWORD PTR [esp+0x10],eax
    2012:	eb 11                	jmp    2025 <code+0x2025>
    2014:	8b 44 24 10          	mov    eax,DWORD PTR [esp+0x10]
    2018:	8a 14 24             	mov    dl,BYTE PTR [esp]
    201b:	88 10                	mov    BYTE PTR [eax],dl
    201d:	ff 44 24 10          	inc    DWORD PTR [esp+0x10]
    2021:	ff 4c 24 20          	dec    DWORD PTR [esp+0x20]
    2025:	83 7c 24 20 00       	cmp    DWORD PTR [esp+0x20],0x0
    202a:	75 e8                	jne    2014 <code+0x2014>
    202c:	8b 44 24 18          	mov    eax,DWORD PTR [esp+0x18]
    2030:	83 c4 14             	add    esp,0x14
    2033:	c3                   	ret    
    2034:	83 ec 14             	sub    esp,0x14
    2037:	8b 44 24 1c          	mov    eax,DWORD PTR [esp+0x1c]
    203b:	66 89 04 24          	mov    WORD PTR [esp],ax
    203f:	8b 44 24 18          	mov    eax,DWORD PTR [esp+0x18]
    2043:	89 44 24 10          	mov    DWORD PTR [esp+0x10],eax
    2047:	eb 13                	jmp    205c <code+0x205c>
    2049:	8b 54 24 10          	mov    edx,DWORD PTR [esp+0x10]
    204d:	8b 04 24             	mov    eax,DWORD PTR [esp]
    2050:	66 89 02             	mov    WORD PTR [edx],ax
    2053:	83 44 24 10 02       	add    DWORD PTR [esp+0x10],0x2
    2058:	ff 4c 24 20          	dec    DWORD PTR [esp+0x20]
    205c:	83 7c 24 20 00       	cmp    DWORD PTR [esp+0x20],0x0
    2061:	75 e6                	jne    2049 <code+0x2049>
    2063:	8b 44 24 18          	mov    eax,DWORD PTR [esp+0x18]
    2067:	83 c4 14             	add    esp,0x14
    206a:	c3                   	ret    
    206b:	83 ec 0c             	sub    esp,0xc
    206e:	83 ec 08             	sub    esp,0x8
    2071:	ff 74 24 18          	push   DWORD PTR [esp+0x18]
    2075:	6a 2d                	push   0x2d
    2077:	e8 4b 00 00 00       	call   20c7 <code+0x20c7>
    207c:	83 c4 10             	add    esp,0x10
    207f:	83 c4 0c             	add    esp,0xc
    2082:	c3                   	ret    
    2083:	53                   	push   ebx
    2084:	83 ec 10             	sub    esp,0x10
    2087:	8b 44 24 18          	mov    eax,DWORD PTR [esp+0x18]
    208b:	8b 5c 24 1c          	mov    ebx,DWORD PTR [esp+0x1c]
    208f:	8b 4c 24 20          	mov    ecx,DWORD PTR [esp+0x20]
    2093:	8b 54 24 24          	mov    edx,DWORD PTR [esp+0x24]
    2097:	cd 80                	int    0x80
    2099:	89 44 24 0c          	mov    DWORD PTR [esp+0xc],eax
    209d:	8b 44 24 0c          	mov    eax,DWORD PTR [esp+0xc]
    20a1:	83 c4 10             	add    esp,0x10
    20a4:	5b                   	pop    ebx
    20a5:	c3                   	ret    
    20a6:	53                   	push   ebx
    20a7:	83 ec 10             	sub    esp,0x10
    20aa:	8b 44 24 18          	mov    eax,DWORD PTR [esp+0x18]
    20ae:	8b 54 24 1c          	mov    edx,DWORD PTR [esp+0x1c]
    20b2:	8b 4c 24 20          	mov    ecx,DWORD PTR [esp+0x20]
    20b6:	89 d3                	mov    ebx,edx
    20b8:	cd 80                	int    0x80
    20ba:	89 44 24 0c          	mov    DWORD PTR [esp+0xc],eax
    20be:	8b 44 24 0c          	mov    eax,DWORD PTR [esp+0xc]
    20c2:	83 c4 10             	add    esp,0x10
    20c5:	5b                   	pop    ebx
    20c6:	c3                   	ret    
    20c7:	53                   	push   ebx
    20c8:	83 ec 10             	sub    esp,0x10
    20cb:	8b 44 24 18          	mov    eax,DWORD PTR [esp+0x18]
    20cf:	8b 54 24 1c          	mov    edx,DWORD PTR [esp+0x1c]
    20d3:	89 d3                	mov    ebx,edx
    20d5:	cd 80                	int    0x80
    20d7:	89 44 24 0c          	mov    DWORD PTR [esp+0xc],eax
    20db:	8b 44 24 0c          	mov    eax,DWORD PTR [esp+0xc]
    20df:	83 c4 10             	add    esp,0x10
    20e2:	5b                   	pop    ebx
    20e3:	c3                   	ret    
    20e4:	83 ec 10             	sub    esp,0x10
    20e7:	8b 44 24 14          	mov    eax,DWORD PTR [esp+0x14]
    20eb:	cd 80                	int    0x80
    20ed:	89 44 24 0c          	mov    DWORD PTR [esp+0xc],eax
    20f1:	8b 44 24 0c          	mov    eax,DWORD PTR [esp+0xc]
    20f5:	83 c4 10             	add    esp,0x10
    20f8:	c3                   	ret    
    20f9:	6a 02                	push   0x2
    20fb:	e8 e4 ff ff ff       	call   20e4 <code+0x20e4>
    2100:	83 c4 04             	add    esp,0x4
    2103:	c3                   	ret    
    2104:	ff 74 24 04          	push   DWORD PTR [esp+0x4]
    2108:	6a 01                	push   0x1
    210a:	e8 b8 ff ff ff       	call   20c7 <code+0x20c7>
    210f:	83 c4 08             	add    esp,0x8
    2112:	c3                   	ret    
    2113:	8b 44 24 08          	mov    eax,DWORD PTR [esp+0x8]
    2117:	ff 74 24 0c          	push   DWORD PTR [esp+0xc]
    211b:	50                   	push   eax
    211c:	ff 74 24 0c          	push   DWORD PTR [esp+0xc]
    2120:	6a 07                	push   0x7
    2122:	e8 5c ff ff ff       	call   2083 <code+0x2083>
    2127:	83 c4 10             	add    esp,0x10
    212a:	c3                   	ret    
    212b:	6a 42                	push   0x42
    212d:	e8 b2 ff ff ff       	call   20e4 <code+0x20e4>
    2132:	83 c4 04             	add    esp,0x4
    2135:	c3                   	ret    
    2136:	6a 15                	push   0x15
    2138:	e8 a7 ff ff ff       	call   20e4 <code+0x20e4>
    213d:	83 c4 04             	add    esp,0x4
    2140:	c3                   	ret    
    2141:	6a 14                	push   0x14
    2143:	e8 9c ff ff ff       	call   20e4 <code+0x20e4>
    2148:	83 c4 04             	add    esp,0x4
    214b:	c3                   	ret    
    214c:	6a 40                	push   0x40
    214e:	e8 91 ff ff ff       	call   20e4 <code+0x20e4>
    2153:	83 c4 04             	add    esp,0x4
    2156:	c3                   	ret    
    2157:	8b 44 24 08          	mov    eax,DWORD PTR [esp+0x8]
    215b:	50                   	push   eax
    215c:	ff 74 24 08          	push   DWORD PTR [esp+0x8]
    2160:	68 f7 01 00 00       	push   0x1f7
    2165:	e8 3c ff ff ff       	call   20a6 <code+0x20a6>
    216a:	83 c4 0c             	add    esp,0xc
    216d:	c3                   	ret    
    216e:	8b 44 24 04          	mov    eax,DWORD PTR [esp+0x4]
    2172:	50                   	push   eax
    2173:	68 f8 01 00 00       	push   0x1f8
    2178:	e8 4a ff ff ff       	call   20c7 <code+0x20c7>
    217d:	83 c4 08             	add    esp,0x8
    2180:	c3                   	ret    
    2181:	8b 54 24 08          	mov    edx,DWORD PTR [esp+0x8]
    2185:	8b 44 24 04          	mov    eax,DWORD PTR [esp+0x4]
    2189:	52                   	push   edx
    218a:	50                   	push   eax
    218b:	6a 0b                	push   0xb
    218d:	e8 14 ff ff ff       	call   20a6 <code+0x20a6>
    2192:	83 c4 0c             	add    esp,0xc
    2195:	c3                   	ret    
    2196:	8b 44 24 0c          	mov    eax,DWORD PTR [esp+0xc]
    219a:	50                   	push   eax
    219b:	68 fa 01 00 00       	push   0x1fa
    21a0:	e8 22 ff ff ff       	call   20c7 <code+0x20c7>
    21a5:	83 c4 08             	add    esp,0x8
    21a8:	c3                   	ret    
    21a9:	68 fb 01 00 00       	push   0x1fb
    21ae:	e8 31 ff ff ff       	call   20e4 <code+0x20e4>
    21b3:	83 c4 04             	add    esp,0x4
    21b6:	c3                   	ret    
    21b7:	68 f9 01 00 00       	push   0x1f9
    21bc:	e8 23 ff ff ff       	call   20e4 <code+0x20e4>
    21c1:	83 c4 04             	add    esp,0x4
    21c4:	c3                   	ret    
    21c5:	ff 74 24 04          	push   DWORD PTR [esp+0x4]
    21c9:	68 fc 01 00 00       	push   0x1fc
    21ce:	e8 f4 fe ff ff       	call   20c7 <code+0x20c7>
    21d3:	83 c4 08             	add    esp,0x8
    21d6:	c3                   	ret    
    21d7:	68 fd 01 00 00       	push   0x1fd
    21dc:	e8 03 ff ff ff       	call   20e4 <code+0x20e4>
    21e1:	83 c4 04             	add    esp,0x4
    21e4:	c3                   	ret    
    21e5:	68 fe 01 00 00       	push   0x1fe
    21ea:	e8 f5 fe ff ff       	call   20e4 <code+0x20e4>
    21ef:	83 c4 04             	add    esp,0x4
    21f2:	c3                   	ret    
    21f3:	ff 74 24 04          	push   DWORD PTR [esp+0x4]
    21f7:	68 ff 01 00 00       	push   0x1ff
    21fc:	e8 c6 fe ff ff       	call   20c7 <code+0x20c7>
    2201:	83 c4 08             	add    esp,0x8
    2204:	c3                   	ret    
    2205:	68 00 02 00 00       	push   0x200
    220a:	e8 d5 fe ff ff       	call   20e4 <code+0x20e4>
    220f:	83 c4 04             	add    esp,0x4
    2212:	c3                   	ret    
    2213:	8b 54 24 08          	mov    edx,DWORD PTR [esp+0x8]
    2217:	8b 44 24 04          	mov    eax,DWORD PTR [esp+0x4]
    221b:	52                   	push   edx
    221c:	50                   	push   eax
    221d:	68 01 02 00 00       	push   0x201
    2222:	e8 7f fe ff ff       	call   20a6 <code+0x20a6>
    2227:	83 c4 0c             	add    esp,0xc
    222a:	c3                   	ret    
    222b:	83 ec 08             	sub    esp,0x8
    222e:	8b 54 24 0c          	mov    edx,DWORD PTR [esp+0xc]
    2232:	8b 44 24 10          	mov    eax,DWORD PTR [esp+0x10]
    2236:	88 54 24 04          	mov    BYTE PTR [esp+0x4],dl
    223a:	88 04 24             	mov    BYTE PTR [esp],al
    223d:	0f be 14 24          	movsx  edx,BYTE PTR [esp]
    2241:	0f be 44 24 04       	movsx  eax,BYTE PTR [esp+0x4]
    2246:	52                   	push   edx
    2247:	50                   	push   eax
    2248:	68 02 02 00 00       	push   0x202
    224d:	e8 54 fe ff ff       	call   20a6 <code+0x20a6>
    2252:	83 c4 0c             	add    esp,0xc
    2255:	83 c4 08             	add    esp,0x8
    2258:	c3                   	ret    
    2259:	8b 44 24 04          	mov    eax,DWORD PTR [esp+0x4]
    225d:	50                   	push   eax
    225e:	68 03 02 00 00       	push   0x203
    2263:	e8 5f fe ff ff       	call   20c7 <code+0x20c7>
    2268:	83 c4 08             	add    esp,0x8
    226b:	c3                   	ret    
    226c:	8b 44 24 04          	mov    eax,DWORD PTR [esp+0x4]
    2270:	50                   	push   eax
    2271:	68 04 02 00 00       	push   0x204
    2276:	e8 4c fe ff ff       	call   20c7 <code+0x20c7>
    227b:	83 c4 08             	add    esp,0x8
    227e:	c3                   	ret    
    227f:	81 ec b0 0f 00 00    	sub    esp,0xfb0
    2285:	66 c7 84 24 ae 0f 00 	mov    WORD PTR [esp+0xfae],0xf20
    228c:	00 20 0f 
    228f:	8d 44 24 0e          	lea    eax,[esp+0xe]
    2293:	50                   	push   eax
    2294:	e8 c0 ff ff ff       	call   2259 <code+0x2259>
    2299:	83 c4 04             	add    esp,0x4
    229c:	0f b7 84 24 ae 0f 00 	movzx  eax,WORD PTR [esp+0xfae]
    22a3:	00 
    22a4:	8d 54 24 0e          	lea    edx,[esp+0xe]
    22a8:	81 c2 00 0f 00 00    	add    edx,0xf00
    22ae:	6a 50                	push   0x50
    22b0:	50                   	push   eax
    22b1:	52                   	push   edx
    22b2:	e8 7d fd ff ff       	call   2034 <code+0x2034>
    22b7:	83 c4 0c             	add    esp,0xc
    22ba:	8d 44 24 0e          	lea    eax,[esp+0xe]
    22be:	05 a0 00 00 00       	add    eax,0xa0
    22c3:	50                   	push   eax
    22c4:	e8 a3 ff ff ff       	call   226c <code+0x226c>
    22c9:	83 c4 04             	add    esp,0x4
    22cc:	81 c4 b0 0f 00 00    	add    esp,0xfb0
    22d2:	c3                   	ret    
    22d3:	81 ec b0 0f 00 00    	sub    esp,0xfb0
    22d9:	66 c7 84 24 ae 0f 00 	mov    WORD PTR [esp+0xfae],0xf20
    22e0:	00 20 0f 
    22e3:	8d 44 24 0e          	lea    eax,[esp+0xe]
    22e7:	05 a0 00 00 00       	add    eax,0xa0
    22ec:	50                   	push   eax
    22ed:	e8 67 ff ff ff       	call   2259 <code+0x2259>
    22f2:	83 c4 04             	add    esp,0x4
    22f5:	0f b7 94 24 ae 0f 00 	movzx  edx,WORD PTR [esp+0xfae]
    22fc:	00 
    22fd:	8d 44 24 0e          	lea    eax,[esp+0xe]
    2301:	6a 50                	push   0x50
    2303:	52                   	push   edx
    2304:	50                   	push   eax
    2305:	e8 2a fd ff ff       	call   2034 <code+0x2034>
    230a:	83 c4 0c             	add    esp,0xc
    230d:	8d 44 24 0e          	lea    eax,[esp+0xe]
    2311:	50                   	push   eax
    2312:	e8 55 ff ff ff       	call   226c <code+0x226c>
    2317:	83 c4 04             	add    esp,0x4
    231a:	81 c4 b0 0f 00 00    	add    esp,0xfb0
    2320:	c3                   	ret    
    2321:	8b 54 24 08          	mov    edx,DWORD PTR [esp+0x8]
    2325:	8b 44 24 04          	mov    eax,DWORD PTR [esp+0x4]
    2329:	52                   	push   edx
    232a:	50                   	push   eax
    232b:	68 05 02 00 00       	push   0x205
    2330:	e8 71 fd ff ff       	call   20a6 <code+0x20a6>
    2335:	83 c4 0c             	add    esp,0xc
    2338:	c3                   	ret    
    2339:	8b 44 24 04          	mov    eax,DWORD PTR [esp+0x4]
    233d:	50                   	push   eax
    233e:	68 06 02 00 00       	push   0x206
    2343:	e8 7f fd ff ff       	call   20c7 <code+0x20c7>
    2348:	83 c4 08             	add    esp,0x8
    234b:	c3                   	ret    
    234c:	8b 44 24 04          	mov    eax,DWORD PTR [esp+0x4]
    2350:	50                   	push   eax
    2351:	68 07 02 00 00       	push   0x207
    2356:	e8 6c fd ff ff       	call   20c7 <code+0x20c7>
    235b:	83 c4 08             	add    esp,0x8
    235e:	c3                   	ret    
    235f:	8b 44 24 04          	mov    eax,DWORD PTR [esp+0x4]
    2363:	50                   	push   eax
    2364:	68 08 02 00 00       	push   0x208
    2369:	e8 59 fd ff ff       	call   20c7 <code+0x20c7>
    236e:	83 c4 08             	add    esp,0x8
    2371:	c3                   	ret    
    2372:	8b 44 24 04          	mov    eax,DWORD PTR [esp+0x4]
    2376:	ff 74 24 08          	push   DWORD PTR [esp+0x8]
    237a:	50                   	push   eax
    237b:	6a 05                	push   0x5
    237d:	e8 24 fd ff ff       	call   20a6 <code+0x20a6>
    2382:	83 c4 0c             	add    esp,0xc
    2385:	c3                   	ret    
    2386:	8b 54 24 08          	mov    edx,DWORD PTR [esp+0x8]
    238a:	8b 44 24 04          	mov    eax,DWORD PTR [esp+0x4]
    238e:	52                   	push   edx
    238f:	50                   	push   eax
    2390:	6a 6a                	push   0x6a
    2392:	e8 0f fd ff ff       	call   20a6 <code+0x20a6>
    2397:	83 c4 0c             	add    esp,0xc
    239a:	c3                   	ret    
    239b:	ff 74 24 04          	push   DWORD PTR [esp+0x4]
    239f:	6a 06                	push   0x6
    23a1:	e8 21 fd ff ff       	call   20c7 <code+0x20c7>
    23a6:	83 c4 08             	add    esp,0x8
    23a9:	c3                   	ret    
    23aa:	8b 44 24 08          	mov    eax,DWORD PTR [esp+0x8]
    23ae:	ff 74 24 0c          	push   DWORD PTR [esp+0xc]
    23b2:	50                   	push   eax
    23b3:	ff 74 24 0c          	push   DWORD PTR [esp+0xc]
    23b7:	6a 03                	push   0x3
    23b9:	e8 c5 fc ff ff       	call   2083 <code+0x2083>
    23be:	83 c4 10             	add    esp,0x10
    23c1:	c3                   	ret    
    23c2:	8b 44 24 08          	mov    eax,DWORD PTR [esp+0x8]
    23c6:	ff 74 24 0c          	push   DWORD PTR [esp+0xc]
    23ca:	50                   	push   eax
    23cb:	ff 74 24 0c          	push   DWORD PTR [esp+0xc]
    23cf:	6a 04                	push   0x4
    23d1:	e8 ad fc ff ff       	call   2083 <code+0x2083>
    23d6:	83 c4 10             	add    esp,0x10
    23d9:	c3                   	ret    
    23da:	ff 74 24 0c          	push   DWORD PTR [esp+0xc]
    23de:	ff 74 24 0c          	push   DWORD PTR [esp+0xc]
    23e2:	ff 74 24 0c          	push   DWORD PTR [esp+0xc]
    23e6:	6a 13                	push   0x13
    23e8:	e8 96 fc ff ff       	call   2083 <code+0x2083>
    23ed:	83 c4 10             	add    esp,0x10
    23f0:	c3                   	ret    
    23f1:	ff 74 24 04          	push   DWORD PTR [esp+0x4]
    23f5:	68 09 02 00 00       	push   0x209
    23fa:	e8 c8 fc ff ff       	call   20c7 <code+0x20c7>
    23ff:	83 c4 08             	add    esp,0x8
    2402:	c3                   	ret    
    2403:	8b 44 24 04          	mov    eax,DWORD PTR [esp+0x4]
    2407:	ff 74 24 08          	push   DWORD PTR [esp+0x8]
    240b:	50                   	push   eax
    240c:	6a 27                	push   0x27
    240e:	e8 93 fc ff ff       	call   20a6 <code+0x20a6>
    2413:	83 c4 0c             	add    esp,0xc
    2416:	c3                   	ret    
    2417:	8b 44 24 04          	mov    eax,DWORD PTR [esp+0x4]
    241b:	50                   	push   eax
    241c:	6a 28                	push   0x28
    241e:	e8 a4 fc ff ff       	call   20c7 <code+0x20c7>
    2423:	83 c4 08             	add    esp,0x8
    2426:	c3                   	ret    
    2427:	8b 54 24 0c          	mov    edx,DWORD PTR [esp+0xc]
    242b:	8b 44 24 04          	mov    eax,DWORD PTR [esp+0x4]
    242f:	52                   	push   edx
    2430:	ff 74 24 0c          	push   DWORD PTR [esp+0xc]
    2434:	50                   	push   eax
    2435:	6a 59                	push   0x59
    2437:	e8 47 fc ff ff       	call   2083 <code+0x2083>
    243c:	83 c4 10             	add    esp,0x10
    243f:	c3                   	ret    
    2440:	ff 74 24 08          	push   DWORD PTR [esp+0x8]
    2444:	ff 74 24 08          	push   DWORD PTR [esp+0x8]
    2448:	6a 5d                	push   0x5d
    244a:	e8 57 fc ff ff       	call   20a6 <code+0x20a6>
    244f:	83 c4 0c             	add    esp,0xc
    2452:	c3                   	ret    
    2453:	8b 44 24 04          	mov    eax,DWORD PTR [esp+0x4]
    2457:	ff 74 24 08          	push   DWORD PTR [esp+0x8]
    245b:	50                   	push   eax
    245c:	6a 5c                	push   0x5c
    245e:	e8 43 fc ff ff       	call   20a6 <code+0x20a6>
    2463:	83 c4 0c             	add    esp,0xc
    2466:	c3                   	ret    
    2467:	8b 54 24 08          	mov    edx,DWORD PTR [esp+0x8]
    246b:	8b 44 24 04          	mov    eax,DWORD PTR [esp+0x4]
    246f:	52                   	push   edx
    2470:	50                   	push   eax
    2471:	6a 09                	push   0x9
    2473:	e8 2e fc ff ff       	call   20a6 <code+0x20a6>
    2478:	83 c4 0c             	add    esp,0xc
    247b:	c3                   	ret    
    247c:	8b 44 24 04          	mov    eax,DWORD PTR [esp+0x4]
    2480:	50                   	push   eax
    2481:	6a 0a                	push   0xa
    2483:	e8 3f fc ff ff       	call   20c7 <code+0x20c7>
    2488:	83 c4 08             	add    esp,0x8
    248b:	c3                   	ret    
    248c:	8b 54 24 08          	mov    edx,DWORD PTR [esp+0x8]
    2490:	8b 44 24 04          	mov    eax,DWORD PTR [esp+0x4]
    2494:	52                   	push   edx
    2495:	50                   	push   eax
    2496:	6a 53                	push   0x53
    2498:	e8 09 fc ff ff       	call   20a6 <code+0x20a6>
    249d:	83 c4 0c             	add    esp,0xc
    24a0:	c3                   	ret    
    24a1:	8b 54 24 08          	mov    edx,DWORD PTR [esp+0x8]
    24a5:	8b 44 24 04          	mov    eax,DWORD PTR [esp+0x4]
    24a9:	ff 74 24 0c          	push   DWORD PTR [esp+0xc]
    24ad:	52                   	push   edx
    24ae:	50                   	push   eax
    24af:	6a 55                	push   0x55
    24b1:	e8 cd fb ff ff       	call   2083 <code+0x2083>
    24b6:	83 c4 10             	add    esp,0x10
    24b9:	c3                   	ret    
    24ba:	83 ec 2c             	sub    esp,0x2c
    24bd:	8b 44 24 38          	mov    eax,DWORD PTR [esp+0x38]
    24c1:	88 44 24 0c          	mov    BYTE PTR [esp+0xc],al
    24c5:	c6 44 24 17 01       	mov    BYTE PTR [esp+0x17],0x1
    24ca:	83 7c 24 34 00       	cmp    DWORD PTR [esp+0x34],0x0
    24cf:	79 09                	jns    24da <code+0x24da>
    24d1:	c6 44 24 17 00       	mov    BYTE PTR [esp+0x17],0x0
    24d6:	f7 5c 24 34          	neg    DWORD PTR [esp+0x34]
    24da:	c7 44 24 18 00 00 00 	mov    DWORD PTR [esp+0x18],0x0
    24e1:	00 
    24e2:	eb 04                	jmp    24e8 <code+0x24e8>
    24e4:	90                   	nop
    24e5:	eb 01                	jmp    24e8 <code+0x24e8>
    24e7:	90                   	nop
    24e8:	83 7c 24 18 00       	cmp    DWORD PTR [esp+0x18],0x0
    24ed:	79 15                	jns    2504 <code+0x2504>
    24ef:	83 ec 0c             	sub    esp,0xc
    24f2:	68 74 33 00 00       	push   0x3374
    24f7:	e8 5b 0d 00 00       	call   3257 <code+0x3257>
    24fc:	83 c4 10             	add    esp,0x10
    24ff:	e9 80 01 00 00       	jmp    2684 <code+0x2684>
    2504:	c6 44 24 16 00       	mov    BYTE PTR [esp+0x16],0x0
    2509:	83 ec 04             	sub    esp,0x4
    250c:	6a 01                	push   0x1
    250e:	8d 44 24 1e          	lea    eax,[esp+0x1e]
    2512:	50                   	push   eax
    2513:	6a 00                	push   0x0
    2515:	e8 90 fe ff ff       	call   23aa <code+0x23aa>
    251a:	83 c4 10             	add    esp,0x10
    251d:	89 44 24 1c          	mov    DWORD PTR [esp+0x1c],eax
    2521:	83 7c 24 1c 00       	cmp    DWORD PTR [esp+0x1c],0x0
    2526:	75 0a                	jne    2532 <code+0x2532>
    2528:	b8 ff ff ff ff       	mov    eax,0xffffffff
    252d:	e9 52 01 00 00       	jmp    2684 <code+0x2684>
    2532:	8a 44 24 16          	mov    al,BYTE PTR [esp+0x16]
    2536:	84 c0                	test   al,al
    2538:	74 ae                	je     24e8 <code+0x24e8>
    253a:	8a 44 24 16          	mov    al,BYTE PTR [esp+0x16]
    253e:	3c 1b                	cmp    al,0x1b
    2540:	74 a6                	je     24e8 <code+0x24e8>
    2542:	8a 44 24 16          	mov    al,BYTE PTR [esp+0x16]
    2546:	3c be                	cmp    al,0xbe
    2548:	77 9e                	ja     24e8 <code+0x24e8>
    254a:	8a 44 24 16          	mov    al,BYTE PTR [esp+0x16]
    254e:	3c 03                	cmp    al,0x3
    2550:	75 30                	jne    2582 <code+0x2582>
    2552:	c7 44 24 18 00 00 00 	mov    DWORD PTR [esp+0x18],0x0
    2559:	00 
    255a:	8b 44 24 30          	mov    eax,DWORD PTR [esp+0x30]
    255e:	c6 00 00             	mov    BYTE PTR [eax],0x0
    2561:	80 7c 24 0c 00       	cmp    BYTE PTR [esp+0xc],0x0
    2566:	74 10                	je     2578 <code+0x2578>
    2568:	83 ec 0c             	sub    esp,0xc
    256b:	68 84 33 00 00       	push   0x3384
    2570:	e8 e2 0c 00 00       	call   3257 <code+0x3257>
    2575:	83 c4 10             	add    esp,0x10
    2578:	b8 00 00 00 00       	mov    eax,0x0
    257d:	e9 02 01 00 00       	jmp    2684 <code+0x2684>
    2582:	8a 44 24 16          	mov    al,BYTE PTR [esp+0x16]
    2586:	3c 04                	cmp    al,0x4
    2588:	75 3e                	jne    25c8 <code+0x25c8>
    258a:	83 7c 24 18 00       	cmp    DWORD PTR [esp+0x18],0x0
    258f:	75 37                	jne    25c8 <code+0x25c8>
    2591:	83 ec 04             	sub    esp,0x4
    2594:	6a 05                	push   0x5
    2596:	68 86 33 00 00       	push   0x3386
    259b:	ff 74 24 3c          	push   DWORD PTR [esp+0x3c]
    259f:	e8 3d f9 ff ff       	call   1ee1 <code+0x1ee1>
    25a4:	83 c4 10             	add    esp,0x10
    25a7:	80 7c 24 0c 00       	cmp    BYTE PTR [esp+0xc],0x0
    25ac:	74 10                	je     25be <code+0x25be>
    25ae:	83 ec 0c             	sub    esp,0xc
    25b1:	68 8b 33 00 00       	push   0x338b
    25b6:	e8 9c 0c 00 00       	call   3257 <code+0x3257>
    25bb:	83 c4 10             	add    esp,0x10
    25be:	b8 00 00 00 00       	mov    eax,0x0
    25c3:	e9 bc 00 00 00       	jmp    2684 <code+0x2684>
    25c8:	8a 44 24 16          	mov    al,BYTE PTR [esp+0x16]
    25cc:	3c 08                	cmp    al,0x8
    25ce:	75 2c                	jne    25fc <code+0x25fc>
    25d0:	83 7c 24 18 00       	cmp    DWORD PTR [esp+0x18],0x0
    25d5:	7e 25                	jle    25fc <code+0x25fc>
    25d7:	ff 4c 24 18          	dec    DWORD PTR [esp+0x18]
    25db:	80 7c 24 0c 00       	cmp    BYTE PTR [esp+0xc],0x0
    25e0:	74 14                	je     25f6 <code+0x25f6>
    25e2:	83 ec 04             	sub    esp,0x4
    25e5:	6a 03                	push   0x3
    25e7:	68 91 33 00 00       	push   0x3391
    25ec:	6a 01                	push   0x1
    25ee:	e8 cf fd ff ff       	call   23c2 <code+0x23c2>
    25f3:	83 c4 10             	add    esp,0x10
    25f6:	90                   	nop
    25f7:	e9 ec fe ff ff       	jmp    24e8 <code+0x24e8>
    25fc:	8a 44 24 16          	mov    al,BYTE PTR [esp+0x16]
    2600:	3c 0a                	cmp    al,0xa
    2602:	75 34                	jne    2638 <code+0x2638>
    2604:	80 7c 24 17 01       	cmp    BYTE PTR [esp+0x17],0x1
    2609:	75 1b                	jne    2626 <code+0x2626>
    260b:	80 7c 24 0c 00       	cmp    BYTE PTR [esp+0xc],0x0
    2610:	74 14                	je     2626 <code+0x2626>
    2612:	83 ec 04             	sub    esp,0x4
    2615:	6a 01                	push   0x1
    2617:	68 84 33 00 00       	push   0x3384
    261c:	6a 01                	push   0x1
    261e:	e8 9f fd ff ff       	call   23c2 <code+0x23c2>
    2623:	83 c4 10             	add    esp,0x10
    2626:	8b 44 24 18          	mov    eax,DWORD PTR [esp+0x18]
    262a:	03 44 24 30          	add    eax,DWORD PTR [esp+0x30]
    262e:	c6 00 00             	mov    BYTE PTR [eax],0x0
    2631:	b8 00 00 00 00       	mov    eax,0x0
    2636:	eb 4c                	jmp    2684 <code+0x2684>
    2638:	8a 44 24 16          	mov    al,BYTE PTR [esp+0x16]
    263c:	3c 08                	cmp    al,0x8
    263e:	0f 84 a0 fe ff ff    	je     24e4 <code+0x24e4>
    2644:	8b 44 24 18          	mov    eax,DWORD PTR [esp+0x18]
    2648:	3b 44 24 34          	cmp    eax,DWORD PTR [esp+0x34]
    264c:	0f 8d 95 fe ff ff    	jge    24e7 <code+0x24e7>
    2652:	80 7c 24 0c 00       	cmp    BYTE PTR [esp+0xc],0x0
    2657:	74 14                	je     266d <code+0x266d>
    2659:	83 ec 04             	sub    esp,0x4
    265c:	6a 01                	push   0x1
    265e:	8d 44 24 1e          	lea    eax,[esp+0x1e]
    2662:	50                   	push   eax
    2663:	6a 01                	push   0x1
    2665:	e8 58 fd ff ff       	call   23c2 <code+0x23c2>
    266a:	83 c4 10             	add    esp,0x10
    266d:	8b 44 24 18          	mov    eax,DWORD PTR [esp+0x18]
    2671:	03 44 24 30          	add    eax,DWORD PTR [esp+0x30]
    2675:	8a 54 24 16          	mov    dl,BYTE PTR [esp+0x16]
    2679:	88 10                	mov    BYTE PTR [eax],dl
    267b:	ff 44 24 18          	inc    DWORD PTR [esp+0x18]
    267f:	e9 64 fe ff ff       	jmp    24e8 <code+0x24e8>
    2684:	83 c4 2c             	add    esp,0x2c
    2687:	c3                   	ret    
    2688:	83 ec 10             	sub    esp,0x10
    268b:	6a 01                	push   0x1
    268d:	8d 44 24 13          	lea    eax,[esp+0x13]
    2691:	50                   	push   eax
    2692:	6a 00                	push   0x0
    2694:	e8 11 fd ff ff       	call   23aa <code+0x23aa>
    2699:	83 c4 0c             	add    esp,0xc
    269c:	8a 44 24 0f          	mov    al,BYTE PTR [esp+0xf]
    26a0:	83 c4 10             	add    esp,0x10
    26a3:	c3                   	ret    
    26a4:	8b 44 24 04          	mov    eax,DWORD PTR [esp+0x4]
    26a8:	ff 74 24 08          	push   DWORD PTR [esp+0x8]
    26ac:	50                   	push   eax
    26ad:	68 b7 00 00 00       	push   0xb7
    26b2:	e8 ef f9 ff ff       	call   20a6 <code+0x20a6>
    26b7:	83 c4 0c             	add    esp,0xc
    26ba:	c3                   	ret    
    26bb:	8b 44 24 04          	mov    eax,DWORD PTR [esp+0x4]
    26bf:	50                   	push   eax
    26c0:	6a 0c                	push   0xc
    26c2:	e8 00 fa ff ff       	call   20c7 <code+0x20c7>
    26c7:	83 c4 08             	add    esp,0x8
    26ca:	c3                   	ret    
    26cb:	8b 44 24 04          	mov    eax,DWORD PTR [esp+0x4]
    26cf:	50                   	push   eax
    26d0:	68 0a 02 00 00       	push   0x20a
    26d5:	e8 ed f9 ff ff       	call   20c7 <code+0x20c7>
    26da:	83 c4 08             	add    esp,0x8
    26dd:	c3                   	ret    
    26de:	6a 24                	push   0x24
    26e0:	e8 ff f9 ff ff       	call   20e4 <code+0x20e4>
    26e5:	83 c4 04             	add    esp,0x4
    26e8:	c3                   	ret    
    26e9:	ff 74 24 08          	push   DWORD PTR [esp+0x8]
    26ed:	ff 74 24 08          	push   DWORD PTR [esp+0x8]
    26f1:	6a 25                	push   0x25
    26f3:	e8 ae f9 ff ff       	call   20a6 <code+0x20a6>
    26f8:	83 c4 0c             	add    esp,0xc
    26fb:	c3                   	ret    
    26fc:	e8 40 fa ff ff       	call   2141 <code+0x2141>
    2701:	ff 74 24 04          	push   DWORD PTR [esp+0x4]
    2705:	50                   	push   eax
    2706:	e8 de ff ff ff       	call   26e9 <code+0x26e9>
    270b:	83 c4 08             	add    esp,0x8
    270e:	c3                   	ret    
    270f:	8b 44 24 08          	mov    eax,DWORD PTR [esp+0x8]
    2713:	50                   	push   eax
    2714:	ff 74 24 08          	push   DWORD PTR [esp+0x8]
    2718:	6a 30                	push   0x30
    271a:	e8 87 f9 ff ff       	call   20a6 <code+0x20a6>
    271f:	83 c4 0c             	add    esp,0xc
    2722:	c3                   	ret    
    2723:	83 ec 04             	sub    esp,0x4
    2726:	8b 44 24 08          	mov    eax,DWORD PTR [esp+0x8]
    272a:	66 89 04 24          	mov    WORD PTR [esp],ax
    272e:	0f b7 04 24          	movzx  eax,WORD PTR [esp]
    2732:	50                   	push   eax
    2733:	68 d5 00 00 00       	push   0xd5
    2738:	e8 8a f9 ff ff       	call   20c7 <code+0x20c7>
    273d:	83 c4 08             	add    esp,0x8
    2740:	83 c4 04             	add    esp,0x4
    2743:	c3                   	ret    
    2744:	83 ec 04             	sub    esp,0x4
    2747:	8b 44 24 08          	mov    eax,DWORD PTR [esp+0x8]
    274b:	66 89 04 24          	mov    WORD PTR [esp],ax
    274f:	0f b7 04 24          	movzx  eax,WORD PTR [esp]
    2753:	50                   	push   eax
    2754:	68 d6 00 00 00       	push   0xd6
    2759:	e8 69 f9 ff ff       	call   20c7 <code+0x20c7>
    275e:	83 c4 08             	add    esp,0x8
    2761:	83 c4 04             	add    esp,0x4
    2764:	c3                   	ret    
    2765:	83 ec 04             	sub    esp,0x4
    2768:	8b 44 24 08          	mov    eax,DWORD PTR [esp+0x8]
    276c:	66 89 04 24          	mov    WORD PTR [esp],ax
    2770:	0f b7 04 24          	movzx  eax,WORD PTR [esp]
    2774:	50                   	push   eax
    2775:	68 cb 00 00 00       	push   0xcb
    277a:	e8 48 f9 ff ff       	call   20c7 <code+0x20c7>
    277f:	83 c4 08             	add    esp,0x8
    2782:	83 c4 04             	add    esp,0x4
    2785:	c3                   	ret    
    2786:	83 ec 04             	sub    esp,0x4
    2789:	8b 44 24 08          	mov    eax,DWORD PTR [esp+0x8]
    278d:	66 89 04 24          	mov    WORD PTR [esp],ax
    2791:	0f b7 04 24          	movzx  eax,WORD PTR [esp]
    2795:	50                   	push   eax
    2796:	68 cc 00 00 00       	push   0xcc
    279b:	e8 27 f9 ff ff       	call   20c7 <code+0x20c7>
    27a0:	83 c4 08             	add    esp,0x8
    27a3:	83 c4 04             	add    esp,0x4
    27a6:	c3                   	ret    
    27a7:	83 ec 04             	sub    esp,0x4
    27aa:	8b 44 24 08          	mov    eax,DWORD PTR [esp+0x8]
    27ae:	66 89 04 24          	mov    WORD PTR [esp],ax
    27b2:	8b 54 24 0c          	mov    edx,DWORD PTR [esp+0xc]
    27b6:	0f b7 04 24          	movzx  eax,WORD PTR [esp]
    27ba:	52                   	push   edx
    27bb:	50                   	push   eax
    27bc:	68 0b 02 00 00       	push   0x20b
    27c1:	e8 e0 f8 ff ff       	call   20a6 <code+0x20a6>
    27c6:	83 c4 0c             	add    esp,0xc
    27c9:	83 c4 04             	add    esp,0x4
    27cc:	c3                   	ret    
    27cd:	57                   	push   edi
    27ce:	56                   	push   esi
    27cf:	53                   	push   ebx
    27d0:	81 ec 20 06 00 00    	sub    esp,0x620
    27d6:	8d 94 24 0c 02 00 00 	lea    edx,[esp+0x20c]
    27dd:	bb de 33 00 00       	mov    ebx,0x33de
    27e2:	b8 0a 00 00 00       	mov    eax,0xa
    27e7:	89 d7                	mov    edi,edx
    27e9:	89 de                	mov    esi,ebx
    27eb:	89 c1                	mov    ecx,eax
    27ed:	f3 a4                	rep movs BYTE PTR es:[edi],BYTE PTR ds:[esi]
    27ef:	8d 9c 24 16 02 00 00 	lea    ebx,[esp+0x216]
    27f6:	b0 00                	mov    al,0x0
    27f8:	ba f6 03 00 00       	mov    edx,0x3f6
    27fd:	89 df                	mov    edi,ebx
    27ff:	89 d1                	mov    ecx,edx
    2801:	f3 aa                	rep stos BYTE PTR es:[edi],al
    2803:	6a 00                	push   0x0
    2805:	68 95 33 00 00       	push   0x3395
    280a:	e8 63 fb ff ff       	call   2372 <code+0x2372>
    280f:	83 c4 08             	add    esp,0x8
    2812:	89 84 24 0c 06 00 00 	mov    DWORD PTR [esp+0x60c],eax
    2819:	83 bc 24 0c 06 00 00 	cmp    DWORD PTR [esp+0x60c],0xffffffff
    2820:	ff 
    2821:	75 1a                	jne    283d <code+0x283d>
    2823:	83 ec 0c             	sub    esp,0xc
    2826:	68 a1 33 00 00       	push   0x33a1
    282b:	e8 27 0a 00 00       	call   3257 <code+0x3257>
    2830:	83 c4 10             	add    esp,0x10
    2833:	b8 ff ff ff ff       	mov    eax,0xffffffff
    2838:	e9 57 02 00 00       	jmp    2a94 <code+0x2a94>
    283d:	83 ec 04             	sub    esp,0x4
    2840:	68 00 04 00 00       	push   0x400
    2845:	8d 84 24 14 02 00 00 	lea    eax,[esp+0x214]
    284c:	50                   	push   eax
    284d:	ff b4 24 18 06 00 00 	push   DWORD PTR [esp+0x618]
    2854:	e8 51 fb ff ff       	call   23aa <code+0x23aa>
    2859:	83 c4 10             	add    esp,0x10
    285c:	89 84 24 10 06 00 00 	mov    DWORD PTR [esp+0x610],eax
    2863:	83 bc 24 10 06 00 00 	cmp    DWORD PTR [esp+0x610],0xffffffff
    286a:	ff 
    286b:	75 21                	jne    288e <code+0x288e>
    286d:	83 ec 08             	sub    esp,0x8
    2870:	ff b4 24 14 06 00 00 	push   DWORD PTR [esp+0x614]
    2877:	68 bc 33 00 00       	push   0x33bc
    287c:	e8 d6 09 00 00       	call   3257 <code+0x3257>
    2881:	83 c4 10             	add    esp,0x10
    2884:	b8 ff ff ff ff       	mov    eax,0xffffffff
    2889:	e9 06 02 00 00       	jmp    2a94 <code+0x2a94>
    288e:	83 ec 0c             	sub    esp,0xc
    2891:	ff b4 24 18 06 00 00 	push   DWORD PTR [esp+0x618]
    2898:	e8 fe fa ff ff       	call   239b <code+0x239b>
    289d:	83 c4 10             	add    esp,0x10
    28a0:	c7 84 24 14 06 00 00 	mov    DWORD PTR [esp+0x614],0x0
    28a7:	00 00 00 00 
    28ab:	8b 84 24 14 06 00 00 	mov    eax,DWORD PTR [esp+0x614]
    28b2:	8d 94 24 0c 02 00 00 	lea    edx,[esp+0x20c]
    28b9:	89 54 84 0c          	mov    DWORD PTR [esp+eax*4+0xc],edx
    28bd:	ff 84 24 14 06 00 00 	inc    DWORD PTR [esp+0x614]
    28c4:	c7 84 24 18 06 00 00 	mov    DWORD PTR [esp+0x618],0x1
    28cb:	01 00 00 00 
    28cf:	eb 5f                	jmp    2930 <code+0x2930>
    28d1:	8b 84 24 18 06 00 00 	mov    eax,DWORD PTR [esp+0x618]
    28d8:	8a 84 04 0c 02 00 00 	mov    al,BYTE PTR [esp+eax*1+0x20c]
    28df:	3c 3a                	cmp    al,0x3a
    28e1:	74 12                	je     28f5 <code+0x28f5>
    28e3:	8b 84 24 18 06 00 00 	mov    eax,DWORD PTR [esp+0x618]
    28ea:	8a 84 04 0c 02 00 00 	mov    al,BYTE PTR [esp+eax*1+0x20c]
    28f1:	3c 0a                	cmp    al,0xa
    28f3:	75 34                	jne    2929 <code+0x2929>
    28f5:	8b 84 24 18 06 00 00 	mov    eax,DWORD PTR [esp+0x618]
    28fc:	c6 84 04 0c 02 00 00 	mov    BYTE PTR [esp+eax*1+0x20c],0x0
    2903:	00 
    2904:	8b 94 24 14 06 00 00 	mov    edx,DWORD PTR [esp+0x614]
    290b:	8b 84 24 18 06 00 00 	mov    eax,DWORD PTR [esp+0x618]
    2912:	8d 48 01             	lea    ecx,[eax+0x1]
    2915:	8d 84 24 0c 02 00 00 	lea    eax,[esp+0x20c]
    291c:	01 c8                	add    eax,ecx
    291e:	89 44 94 0c          	mov    DWORD PTR [esp+edx*4+0xc],eax
    2922:	ff 84 24 14 06 00 00 	inc    DWORD PTR [esp+0x614]
    2929:	ff 84 24 18 06 00 00 	inc    DWORD PTR [esp+0x618]
    2930:	8b 84 24 18 06 00 00 	mov    eax,DWORD PTR [esp+0x618]
    2937:	3b 84 24 10 06 00 00 	cmp    eax,DWORD PTR [esp+0x610]
    293e:	7c 91                	jl     28d1 <code+0x28d1>
    2940:	c7 84 24 1c 06 00 00 	mov    DWORD PTR [esp+0x61c],0x0
    2947:	00 00 00 00 
    294b:	e9 15 01 00 00       	jmp    2a65 <code+0x2a65>
    2950:	8b 94 24 1c 06 00 00 	mov    edx,DWORD PTR [esp+0x61c]
    2957:	89 d0                	mov    eax,edx
    2959:	c1 e0 02             	shl    eax,0x2
    295c:	01 d0                	add    eax,edx
    295e:	8b 44 84 0c          	mov    eax,DWORD PTR [esp+eax*4+0xc]
    2962:	83 ec 08             	sub    esp,0x8
    2965:	ff b4 24 38 06 00 00 	push   DWORD PTR [esp+0x638]
    296c:	50                   	push   eax
    296d:	e8 50 f4 ff ff       	call   1dc2 <code+0x1dc2>
    2972:	83 c4 10             	add    esp,0x10
    2975:	85 c0                	test   eax,eax
    2977:	0f 85 e1 00 00 00    	jne    2a5e <code+0x2a5e>
    297d:	8b 94 24 1c 06 00 00 	mov    edx,DWORD PTR [esp+0x61c]
    2984:	89 d0                	mov    eax,edx
    2986:	c1 e0 02             	shl    eax,0x2
    2989:	01 d0                	add    eax,edx
    298b:	8b 54 84 0c          	mov    edx,DWORD PTR [esp+eax*4+0xc]
    298f:	8b 84 24 34 06 00 00 	mov    eax,DWORD PTR [esp+0x634]
    2996:	83 ec 04             	sub    esp,0x4
    2999:	6a 20                	push   0x20
    299b:	52                   	push   edx
    299c:	50                   	push   eax
    299d:	e8 3f f5 ff ff       	call   1ee1 <code+0x1ee1>
    29a2:	83 c4 10             	add    esp,0x10
    29a5:	8b 94 24 1c 06 00 00 	mov    edx,DWORD PTR [esp+0x61c]
    29ac:	89 d0                	mov    eax,edx
    29ae:	c1 e0 02             	shl    eax,0x2
    29b1:	01 d0                	add    eax,edx
    29b3:	40                   	inc    eax
    29b4:	8b 44 84 0c          	mov    eax,DWORD PTR [esp+eax*4+0xc]
    29b8:	8b 94 24 34 06 00 00 	mov    edx,DWORD PTR [esp+0x634]
    29bf:	83 c2 20             	add    edx,0x20
    29c2:	83 ec 04             	sub    esp,0x4
    29c5:	6a 20                	push   0x20
    29c7:	50                   	push   eax
    29c8:	52                   	push   edx
    29c9:	e8 13 f5 ff ff       	call   1ee1 <code+0x1ee1>
    29ce:	83 c4 10             	add    esp,0x10
    29d1:	8b 94 24 1c 06 00 00 	mov    edx,DWORD PTR [esp+0x61c]
    29d8:	89 d0                	mov    eax,edx
    29da:	c1 e0 02             	shl    eax,0x2
    29dd:	01 d0                	add    eax,edx
    29df:	83 c0 02             	add    eax,0x2
    29e2:	8b 44 84 0c          	mov    eax,DWORD PTR [esp+eax*4+0xc]
    29e6:	83 ec 0c             	sub    esp,0xc
    29e9:	50                   	push   eax
    29ea:	e8 3b f5 ff ff       	call   1f2a <code+0x1f2a>
    29ef:	83 c4 10             	add    esp,0x10
    29f2:	8b 94 24 34 06 00 00 	mov    edx,DWORD PTR [esp+0x634]
    29f9:	66 89 42 40          	mov    WORD PTR [edx+0x40],ax
    29fd:	8b 94 24 1c 06 00 00 	mov    edx,DWORD PTR [esp+0x61c]
    2a04:	89 d0                	mov    eax,edx
    2a06:	c1 e0 02             	shl    eax,0x2
    2a09:	01 d0                	add    eax,edx
    2a0b:	83 c0 03             	add    eax,0x3
    2a0e:	8b 44 84 0c          	mov    eax,DWORD PTR [esp+eax*4+0xc]
    2a12:	83 ec 0c             	sub    esp,0xc
    2a15:	50                   	push   eax
    2a16:	e8 0f f5 ff ff       	call   1f2a <code+0x1f2a>
    2a1b:	83 c4 10             	add    esp,0x10
    2a1e:	8b 94 24 34 06 00 00 	mov    edx,DWORD PTR [esp+0x634]
    2a25:	66 89 42 42          	mov    WORD PTR [edx+0x42],ax
    2a29:	8b 94 24 1c 06 00 00 	mov    edx,DWORD PTR [esp+0x61c]
    2a30:	89 d0                	mov    eax,edx
    2a32:	c1 e0 02             	shl    eax,0x2
    2a35:	01 d0                	add    eax,edx
    2a37:	83 c0 04             	add    eax,0x4
    2a3a:	8b 44 84 0c          	mov    eax,DWORD PTR [esp+eax*4+0xc]
    2a3e:	8b 94 24 34 06 00 00 	mov    edx,DWORD PTR [esp+0x634]
    2a45:	83 c2 48             	add    edx,0x48
    2a48:	83 ec 04             	sub    esp,0x4
    2a4b:	6a 20                	push   0x20
    2a4d:	50                   	push   eax
    2a4e:	52                   	push   edx
    2a4f:	e8 8d f4 ff ff       	call   1ee1 <code+0x1ee1>
    2a54:	83 c4 10             	add    esp,0x10
    2a57:	b8 00 00 00 00       	mov    eax,0x0
    2a5c:	eb 36                	jmp    2a94 <code+0x2a94>
    2a5e:	ff 84 24 1c 06 00 00 	inc    DWORD PTR [esp+0x61c]
    2a65:	8b 8c 24 14 06 00 00 	mov    ecx,DWORD PTR [esp+0x614]
    2a6c:	ba 67 66 66 66       	mov    edx,0x66666667
    2a71:	89 c8                	mov    eax,ecx
    2a73:	f7 ea                	imul   edx
    2a75:	d1 fa                	sar    edx,1
    2a77:	89 c8                	mov    eax,ecx
    2a79:	c1 f8 1f             	sar    eax,0x1f
    2a7c:	89 d1                	mov    ecx,edx
    2a7e:	29 c1                	sub    ecx,eax
    2a80:	89 c8                	mov    eax,ecx
    2a82:	3b 84 24 1c 06 00 00 	cmp    eax,DWORD PTR [esp+0x61c]
    2a89:	0f 8f c1 fe ff ff    	jg     2950 <code+0x2950>
    2a8f:	b8 ff ff ff ff       	mov    eax,0xffffffff
    2a94:	81 c4 20 06 00 00    	add    esp,0x620
    2a9a:	5b                   	pop    ebx
    2a9b:	5e                   	pop    esi
    2a9c:	5f                   	pop    edi
    2a9d:	c3                   	ret    
    2a9e:	57                   	push   edi
    2a9f:	56                   	push   esi
    2aa0:	53                   	push   ebx
    2aa1:	81 ec 30 06 00 00    	sub    esp,0x630
    2aa7:	8b 84 24 40 06 00 00 	mov    eax,DWORD PTR [esp+0x640]
    2aae:	66 89 44 24 0c       	mov    WORD PTR [esp+0xc],ax
    2ab3:	8d 94 24 1c 02 00 00 	lea    edx,[esp+0x21c]
    2aba:	bb de 33 00 00       	mov    ebx,0x33de
    2abf:	b8 0a 00 00 00       	mov    eax,0xa
    2ac4:	89 d7                	mov    edi,edx
    2ac6:	89 de                	mov    esi,ebx
    2ac8:	89 c1                	mov    ecx,eax
    2aca:	f3 a4                	rep movs BYTE PTR es:[edi],BYTE PTR ds:[esi]
    2acc:	8d 9c 24 26 02 00 00 	lea    ebx,[esp+0x226]
    2ad3:	b0 00                	mov    al,0x0
    2ad5:	ba f6 03 00 00       	mov    edx,0x3f6
    2ada:	89 df                	mov    edi,ebx
    2adc:	89 d1                	mov    ecx,edx
    2ade:	f3 aa                	rep stos BYTE PTR es:[edi],al
    2ae0:	6a 00                	push   0x0
    2ae2:	68 95 33 00 00       	push   0x3395
    2ae7:	e8 86 f8 ff ff       	call   2372 <code+0x2372>
    2aec:	83 c4 08             	add    esp,0x8
    2aef:	89 84 24 1c 06 00 00 	mov    DWORD PTR [esp+0x61c],eax
    2af6:	83 bc 24 1c 06 00 00 	cmp    DWORD PTR [esp+0x61c],0xffffffff
    2afd:	ff 
    2afe:	75 1a                	jne    2b1a <code+0x2b1a>
    2b00:	83 ec 0c             	sub    esp,0xc
    2b03:	68 a1 33 00 00       	push   0x33a1
    2b08:	e8 4a 07 00 00       	call   3257 <code+0x3257>
    2b0d:	83 c4 10             	add    esp,0x10
    2b10:	b8 ff ff ff ff       	mov    eax,0xffffffff
    2b15:	e9 58 02 00 00       	jmp    2d72 <code+0x2d72>
    2b1a:	83 ec 04             	sub    esp,0x4
    2b1d:	68 00 04 00 00       	push   0x400
    2b22:	8d 84 24 24 02 00 00 	lea    eax,[esp+0x224]
    2b29:	50                   	push   eax
    2b2a:	ff b4 24 28 06 00 00 	push   DWORD PTR [esp+0x628]
    2b31:	e8 74 f8 ff ff       	call   23aa <code+0x23aa>
    2b36:	83 c4 10             	add    esp,0x10
    2b39:	89 84 24 20 06 00 00 	mov    DWORD PTR [esp+0x620],eax
    2b40:	83 bc 24 20 06 00 00 	cmp    DWORD PTR [esp+0x620],0xffffffff
    2b47:	ff 
    2b48:	75 21                	jne    2b6b <code+0x2b6b>
    2b4a:	83 ec 08             	sub    esp,0x8
    2b4d:	ff b4 24 24 06 00 00 	push   DWORD PTR [esp+0x624]
    2b54:	68 bc 33 00 00       	push   0x33bc
    2b59:	e8 f9 06 00 00       	call   3257 <code+0x3257>
    2b5e:	83 c4 10             	add    esp,0x10
    2b61:	b8 ff ff ff ff       	mov    eax,0xffffffff
    2b66:	e9 07 02 00 00       	jmp    2d72 <code+0x2d72>
    2b6b:	83 ec 0c             	sub    esp,0xc
    2b6e:	ff b4 24 28 06 00 00 	push   DWORD PTR [esp+0x628]
    2b75:	e8 21 f8 ff ff       	call   239b <code+0x239b>
    2b7a:	83 c4 10             	add    esp,0x10
    2b7d:	c7 84 24 24 06 00 00 	mov    DWORD PTR [esp+0x624],0x0
    2b84:	00 00 00 00 
    2b88:	8b 84 24 24 06 00 00 	mov    eax,DWORD PTR [esp+0x624]
    2b8f:	8d 94 24 1c 02 00 00 	lea    edx,[esp+0x21c]
    2b96:	89 54 84 1c          	mov    DWORD PTR [esp+eax*4+0x1c],edx
    2b9a:	ff 84 24 24 06 00 00 	inc    DWORD PTR [esp+0x624]
    2ba1:	c7 84 24 28 06 00 00 	mov    DWORD PTR [esp+0x628],0x1
    2ba8:	01 00 00 00 
    2bac:	eb 5f                	jmp    2c0d <code+0x2c0d>
    2bae:	8b 84 24 28 06 00 00 	mov    eax,DWORD PTR [esp+0x628]
    2bb5:	8a 84 04 1c 02 00 00 	mov    al,BYTE PTR [esp+eax*1+0x21c]
    2bbc:	3c 3a                	cmp    al,0x3a
    2bbe:	74 12                	je     2bd2 <code+0x2bd2>
    2bc0:	8b 84 24 28 06 00 00 	mov    eax,DWORD PTR [esp+0x628]
    2bc7:	8a 84 04 1c 02 00 00 	mov    al,BYTE PTR [esp+eax*1+0x21c]
    2bce:	3c 0a                	cmp    al,0xa
    2bd0:	75 34                	jne    2c06 <code+0x2c06>
    2bd2:	8b 84 24 28 06 00 00 	mov    eax,DWORD PTR [esp+0x628]
    2bd9:	c6 84 04 1c 02 00 00 	mov    BYTE PTR [esp+eax*1+0x21c],0x0
    2be0:	00 
    2be1:	8b 94 24 24 06 00 00 	mov    edx,DWORD PTR [esp+0x624]
    2be8:	8b 84 24 28 06 00 00 	mov    eax,DWORD PTR [esp+0x628]
    2bef:	8d 48 01             	lea    ecx,[eax+0x1]
    2bf2:	8d 84 24 1c 02 00 00 	lea    eax,[esp+0x21c]
    2bf9:	01 c8                	add    eax,ecx
    2bfb:	89 44 94 1c          	mov    DWORD PTR [esp+edx*4+0x1c],eax
    2bff:	ff 84 24 24 06 00 00 	inc    DWORD PTR [esp+0x624]
    2c06:	ff 84 24 28 06 00 00 	inc    DWORD PTR [esp+0x628]
    2c0d:	8b 84 24 28 06 00 00 	mov    eax,DWORD PTR [esp+0x628]
    2c14:	3b 84 24 20 06 00 00 	cmp    eax,DWORD PTR [esp+0x620]
    2c1b:	7c 91                	jl     2bae <code+0x2bae>
    2c1d:	c7 84 24 2c 06 00 00 	mov    DWORD PTR [esp+0x62c],0x0
    2c24:	00 00 00 00 
    2c28:	e9 16 01 00 00       	jmp    2d43 <code+0x2d43>
    2c2d:	8b 94 24 2c 06 00 00 	mov    edx,DWORD PTR [esp+0x62c]
    2c34:	89 d0                	mov    eax,edx
    2c36:	c1 e0 02             	shl    eax,0x2
    2c39:	01 d0                	add    eax,edx
    2c3b:	83 c0 02             	add    eax,0x2
    2c3e:	8b 44 84 1c          	mov    eax,DWORD PTR [esp+eax*4+0x1c]
    2c42:	83 ec 0c             	sub    esp,0xc
    2c45:	50                   	push   eax
    2c46:	e8 df f2 ff ff       	call   1f2a <code+0x1f2a>
    2c4b:	83 c4 10             	add    esp,0x10
    2c4e:	0f b7 54 24 0c       	movzx  edx,WORD PTR [esp+0xc]
    2c53:	39 d0                	cmp    eax,edx
    2c55:	0f 85 e1 00 00 00    	jne    2d3c <code+0x2d3c>
    2c5b:	8b 94 24 2c 06 00 00 	mov    edx,DWORD PTR [esp+0x62c]
    2c62:	89 d0                	mov    eax,edx
    2c64:	c1 e0 02             	shl    eax,0x2
    2c67:	01 d0                	add    eax,edx
    2c69:	8b 54 84 1c          	mov    edx,DWORD PTR [esp+eax*4+0x1c]
    2c6d:	8b 84 24 44 06 00 00 	mov    eax,DWORD PTR [esp+0x644]
    2c74:	83 ec 04             	sub    esp,0x4
    2c77:	6a 20                	push   0x20
    2c79:	52                   	push   edx
    2c7a:	50                   	push   eax
    2c7b:	e8 61 f2 ff ff       	call   1ee1 <code+0x1ee1>
    2c80:	83 c4 10             	add    esp,0x10
    2c83:	8b 94 24 2c 06 00 00 	mov    edx,DWORD PTR [esp+0x62c]
    2c8a:	89 d0                	mov    eax,edx
    2c8c:	c1 e0 02             	shl    eax,0x2
    2c8f:	01 d0                	add    eax,edx
    2c91:	40                   	inc    eax
    2c92:	8b 44 84 1c          	mov    eax,DWORD PTR [esp+eax*4+0x1c]
    2c96:	8b 94 24 44 06 00 00 	mov    edx,DWORD PTR [esp+0x644]
    2c9d:	83 c2 20             	add    edx,0x20
    2ca0:	83 ec 04             	sub    esp,0x4
    2ca3:	6a 20                	push   0x20
    2ca5:	50                   	push   eax
    2ca6:	52                   	push   edx
    2ca7:	e8 35 f2 ff ff       	call   1ee1 <code+0x1ee1>
    2cac:	83 c4 10             	add    esp,0x10
    2caf:	8b 94 24 2c 06 00 00 	mov    edx,DWORD PTR [esp+0x62c]
    2cb6:	89 d0                	mov    eax,edx
    2cb8:	c1 e0 02             	shl    eax,0x2
    2cbb:	01 d0                	add    eax,edx
    2cbd:	83 c0 02             	add    eax,0x2
    2cc0:	8b 44 84 1c          	mov    eax,DWORD PTR [esp+eax*4+0x1c]
    2cc4:	83 ec 0c             	sub    esp,0xc
    2cc7:	50                   	push   eax
    2cc8:	e8 5d f2 ff ff       	call   1f2a <code+0x1f2a>
    2ccd:	83 c4 10             	add    esp,0x10
    2cd0:	8b 94 24 44 06 00 00 	mov    edx,DWORD PTR [esp+0x644]
    2cd7:	66 89 42 40          	mov    WORD PTR [edx+0x40],ax
    2cdb:	8b 94 24 2c 06 00 00 	mov    edx,DWORD PTR [esp+0x62c]
    2ce2:	89 d0                	mov    eax,edx
    2ce4:	c1 e0 02             	shl    eax,0x2
    2ce7:	01 d0                	add    eax,edx
    2ce9:	83 c0 03             	add    eax,0x3
    2cec:	8b 44 84 1c          	mov    eax,DWORD PTR [esp+eax*4+0x1c]
    2cf0:	83 ec 0c             	sub    esp,0xc
    2cf3:	50                   	push   eax
    2cf4:	e8 31 f2 ff ff       	call   1f2a <code+0x1f2a>
    2cf9:	83 c4 10             	add    esp,0x10
    2cfc:	8b 94 24 44 06 00 00 	mov    edx,DWORD PTR [esp+0x644]
    2d03:	66 89 42 42          	mov    WORD PTR [edx+0x42],ax
    2d07:	8b 94 24 2c 06 00 00 	mov    edx,DWORD PTR [esp+0x62c]
    2d0e:	89 d0                	mov    eax,edx
    2d10:	c1 e0 02             	shl    eax,0x2
    2d13:	01 d0                	add    eax,edx
    2d15:	83 c0 04             	add    eax,0x4
    2d18:	8b 44 84 1c          	mov    eax,DWORD PTR [esp+eax*4+0x1c]
    2d1c:	8b 94 24 44 06 00 00 	mov    edx,DWORD PTR [esp+0x644]
    2d23:	83 c2 48             	add    edx,0x48
    2d26:	83 ec 04             	sub    esp,0x4
    2d29:	6a 20                	push   0x20
    2d2b:	50                   	push   eax
    2d2c:	52                   	push   edx
    2d2d:	e8 af f1 ff ff       	call   1ee1 <code+0x1ee1>
    2d32:	83 c4 10             	add    esp,0x10
    2d35:	b8 00 00 00 00       	mov    eax,0x0
    2d3a:	eb 36                	jmp    2d72 <code+0x2d72>
    2d3c:	ff 84 24 2c 06 00 00 	inc    DWORD PTR [esp+0x62c]
    2d43:	8b 8c 24 24 06 00 00 	mov    ecx,DWORD PTR [esp+0x624]
    2d4a:	ba 67 66 66 66       	mov    edx,0x66666667
    2d4f:	89 c8                	mov    eax,ecx
    2d51:	f7 ea                	imul   edx
    2d53:	d1 fa                	sar    edx,1
    2d55:	89 c8                	mov    eax,ecx
    2d57:	c1 f8 1f             	sar    eax,0x1f
    2d5a:	89 d1                	mov    ecx,edx
    2d5c:	29 c1                	sub    ecx,eax
    2d5e:	89 c8                	mov    eax,ecx
    2d60:	3b 84 24 2c 06 00 00 	cmp    eax,DWORD PTR [esp+0x62c]
    2d67:	0f 8f c0 fe ff ff    	jg     2c2d <code+0x2c2d>
    2d6d:	b8 ff ff ff ff       	mov    eax,0xffffffff
    2d72:	81 c4 30 06 00 00    	add    esp,0x630
    2d78:	5b                   	pop    ebx
    2d79:	5e                   	pop    esi
    2d7a:	5f                   	pop    edi
    2d7b:	c3                   	ret    
    2d7c:	6a 00                	push   0x0
    2d7e:	68 0c 02 00 00       	push   0x20c
    2d83:	e8 3f f3 ff ff       	call   20c7 <code+0x20c7>
    2d88:	83 c4 08             	add    esp,0x8
    2d8b:	c3                   	ret    
    2d8c:	6a 01                	push   0x1
    2d8e:	68 0c 02 00 00       	push   0x20c
    2d93:	e8 2f f3 ff ff       	call   20c7 <code+0x20c7>
    2d98:	83 c4 08             	add    esp,0x8
    2d9b:	c3                   	ret    
    2d9c:	6a 02                	push   0x2
    2d9e:	68 0c 02 00 00       	push   0x20c
    2da3:	e8 1f f3 ff ff       	call   20c7 <code+0x20c7>
    2da8:	83 c4 08             	add    esp,0x8
    2dab:	c3                   	ret    
    2dac:	6a 03                	push   0x3
    2dae:	68 0c 02 00 00       	push   0x20c
    2db3:	e8 0f f3 ff ff       	call   20c7 <code+0x20c7>
    2db8:	83 c4 08             	add    esp,0x8
    2dbb:	c3                   	ret    
    2dbc:	83 ec 08             	sub    esp,0x8
    2dbf:	8b 54 24 10          	mov    edx,DWORD PTR [esp+0x10]
    2dc3:	8b 44 24 14          	mov    eax,DWORD PTR [esp+0x14]
    2dc7:	66 89 54 24 04       	mov    WORD PTR [esp+0x4],dx
    2dcc:	66 89 04 24          	mov    WORD PTR [esp],ax
    2dd0:	0f bf 0c 24          	movsx  ecx,WORD PTR [esp]
    2dd4:	0f bf 54 24 04       	movsx  edx,WORD PTR [esp+0x4]
    2dd9:	8b 44 24 0c          	mov    eax,DWORD PTR [esp+0xc]
    2ddd:	51                   	push   ecx
    2dde:	52                   	push   edx
    2ddf:	50                   	push   eax
    2de0:	68 b6 00 00 00       	push   0xb6
    2de5:	e8 99 f2 ff ff       	call   2083 <code+0x2083>
    2dea:	83 c4 10             	add    esp,0x10
    2ded:	83 c4 08             	add    esp,0x8
    2df0:	c3                   	ret    
    2df1:	83 ec 04             	sub    esp,0x4
    2df4:	8b 44 24 0c          	mov    eax,DWORD PTR [esp+0xc]
    2df8:	66 89 04 24          	mov    WORD PTR [esp],ax
    2dfc:	0f bf 14 24          	movsx  edx,WORD PTR [esp]
    2e00:	8b 44 24 08          	mov    eax,DWORD PTR [esp+0x8]
    2e04:	52                   	push   edx
    2e05:	50                   	push   eax
    2e06:	6a 0f                	push   0xf
    2e08:	e8 99 f2 ff ff       	call   20a6 <code+0x20a6>
    2e0d:	83 c4 0c             	add    esp,0xc
    2e10:	83 c4 04             	add    esp,0x4
    2e13:	c3                   	ret    
    2e14:	83 ec 04             	sub    esp,0x4
    2e17:	8b 44 24 08          	mov    eax,DWORD PTR [esp+0x8]
    2e1b:	88 04 24             	mov    BYTE PTR [esp],al
    2e1e:	6a 01                	push   0x1
    2e20:	8d 44 24 04          	lea    eax,[esp+0x4]
    2e24:	50                   	push   eax
    2e25:	6a 01                	push   0x1
    2e27:	e8 96 f5 ff ff       	call   23c2 <code+0x23c2>
    2e2c:	83 c4 0c             	add    esp,0xc
    2e2f:	83 c4 04             	add    esp,0x4
    2e32:	c3                   	ret    
    2e33:	83 7c 24 04 00       	cmp    DWORD PTR [esp+0x4],0x0
    2e38:	74 1d                	je     2e57 <code+0x2e57>
    2e3a:	8b 44 24 04          	mov    eax,DWORD PTR [esp+0x4]
    2e3e:	8b 00                	mov    eax,DWORD PTR [eax]
    2e40:	8b 54 24 08          	mov    edx,DWORD PTR [esp+0x8]
    2e44:	88 10                	mov    BYTE PTR [eax],dl
    2e46:	8b 44 24 04          	mov    eax,DWORD PTR [esp+0x4]
    2e4a:	8b 00                	mov    eax,DWORD PTR [eax]
    2e4c:	8d 50 01             	lea    edx,[eax+0x1]
    2e4f:	8b 44 24 04          	mov    eax,DWORD PTR [esp+0x4]
    2e53:	89 10                	mov    DWORD PTR [eax],edx
    2e55:	eb 10                	jmp    2e67 <code+0x2e67>
    2e57:	8b 44 24 08          	mov    eax,DWORD PTR [esp+0x8]
    2e5b:	0f b6 c0             	movzx  eax,al
    2e5e:	50                   	push   eax
    2e5f:	e8 b0 ff ff ff       	call   2e14 <code+0x2e14>
    2e64:	83 c4 04             	add    esp,0x4
    2e67:	c3                   	ret    
    2e68:	55                   	push   ebp
    2e69:	57                   	push   edi
    2e6a:	56                   	push   esi
    2e6b:	53                   	push   ebx
    2e6c:	bb 00 00 00 00       	mov    ebx,0x0
    2e71:	be 20 00 00 00       	mov    esi,0x20
    2e76:	83 7c 24 1c 00       	cmp    DWORD PTR [esp+0x1c],0x0
    2e7b:	7e 38                	jle    2eb5 <code+0x2eb5>
    2e7d:	bf 00 00 00 00       	mov    edi,0x0
    2e82:	8b 6c 24 18          	mov    ebp,DWORD PTR [esp+0x18]
    2e86:	eb 02                	jmp    2e8a <code+0x2e8a>
    2e88:	47                   	inc    edi
    2e89:	45                   	inc    ebp
    2e8a:	8a 45 00             	mov    al,BYTE PTR [ebp+0x0]
    2e8d:	84 c0                	test   al,al
    2e8f:	75 f7                	jne    2e88 <code+0x2e88>
    2e91:	3b 7c 24 1c          	cmp    edi,DWORD PTR [esp+0x1c]
    2e95:	7c 0a                	jl     2ea1 <code+0x2ea1>
    2e97:	c7 44 24 1c 00 00 00 	mov    DWORD PTR [esp+0x1c],0x0
    2e9e:	00 
    2e9f:	eb 04                	jmp    2ea5 <code+0x2ea5>
    2ea1:	29 7c 24 1c          	sub    DWORD PTR [esp+0x1c],edi
    2ea5:	8b 44 24 20          	mov    eax,DWORD PTR [esp+0x20]
    2ea9:	83 e0 02             	and    eax,0x2
    2eac:	85 c0                	test   eax,eax
    2eae:	74 05                	je     2eb5 <code+0x2eb5>
    2eb0:	be 30 00 00 00       	mov    esi,0x30
    2eb5:	8b 44 24 20          	mov    eax,DWORD PTR [esp+0x20]
    2eb9:	83 e0 01             	and    eax,0x1
    2ebc:	85 c0                	test   eax,eax
    2ebe:	75 3a                	jne    2efa <code+0x2efa>
    2ec0:	eb 12                	jmp    2ed4 <code+0x2ed4>
    2ec2:	56                   	push   esi
    2ec3:	ff 74 24 18          	push   DWORD PTR [esp+0x18]
    2ec7:	e8 67 ff ff ff       	call   2e33 <code+0x2e33>
    2ecc:	83 c4 08             	add    esp,0x8
    2ecf:	43                   	inc    ebx
    2ed0:	ff 4c 24 1c          	dec    DWORD PTR [esp+0x1c]
    2ed4:	83 7c 24 1c 00       	cmp    DWORD PTR [esp+0x1c],0x0
    2ed9:	7f e7                	jg     2ec2 <code+0x2ec2>
    2edb:	eb 1e                	jmp    2efb <code+0x2efb>
    2edd:	8b 44 24 18          	mov    eax,DWORD PTR [esp+0x18]
    2ee1:	8a 00                	mov    al,BYTE PTR [eax]
    2ee3:	0f be c0             	movsx  eax,al
    2ee6:	50                   	push   eax
    2ee7:	ff 74 24 18          	push   DWORD PTR [esp+0x18]
    2eeb:	e8 43 ff ff ff       	call   2e33 <code+0x2e33>
    2ef0:	83 c4 08             	add    esp,0x8
    2ef3:	43                   	inc    ebx
    2ef4:	ff 44 24 18          	inc    DWORD PTR [esp+0x18]
    2ef8:	eb 01                	jmp    2efb <code+0x2efb>
    2efa:	90                   	nop
    2efb:	8b 44 24 18          	mov    eax,DWORD PTR [esp+0x18]
    2eff:	8a 00                	mov    al,BYTE PTR [eax]
    2f01:	84 c0                	test   al,al
    2f03:	75 d8                	jne    2edd <code+0x2edd>
    2f05:	eb 12                	jmp    2f19 <code+0x2f19>
    2f07:	56                   	push   esi
    2f08:	ff 74 24 18          	push   DWORD PTR [esp+0x18]
    2f0c:	e8 22 ff ff ff       	call   2e33 <code+0x2e33>
    2f11:	83 c4 08             	add    esp,0x8
    2f14:	43                   	inc    ebx
    2f15:	ff 4c 24 1c          	dec    DWORD PTR [esp+0x1c]
    2f19:	83 7c 24 1c 00       	cmp    DWORD PTR [esp+0x1c],0x0
    2f1e:	7f e7                	jg     2f07 <code+0x2f07>
    2f20:	89 d8                	mov    eax,ebx
    2f22:	5b                   	pop    ebx
    2f23:	5e                   	pop    esi
    2f24:	5f                   	pop    edi
    2f25:	5d                   	pop    ebp
    2f26:	c3                   	ret    
    2f27:	55                   	push   ebp
    2f28:	57                   	push   edi
    2f29:	56                   	push   esi
    2f2a:	53                   	push   ebx
    2f2b:	83 ec 38             	sub    esp,0x38
    2f2e:	c7 44 24 04 00 00 00 	mov    DWORD PTR [esp+0x4],0x0
    2f35:	00 
    2f36:	bd 00 00 00 00       	mov    ebp,0x0
    2f3b:	8b 74 24 50          	mov    esi,DWORD PTR [esp+0x50]
    2f3f:	83 7c 24 50 00       	cmp    DWORD PTR [esp+0x50],0x0
    2f44:	75 28                	jne    2f6e <code+0x2f6e>
    2f46:	c6 44 24 16 30       	mov    BYTE PTR [esp+0x16],0x30
    2f4b:	c6 44 24 17 00       	mov    BYTE PTR [esp+0x17],0x0
    2f50:	ff 74 24 60          	push   DWORD PTR [esp+0x60]
    2f54:	ff 74 24 60          	push   DWORD PTR [esp+0x60]
    2f58:	8d 44 24 1e          	lea    eax,[esp+0x1e]
    2f5c:	50                   	push   eax
    2f5d:	ff 74 24 58          	push   DWORD PTR [esp+0x58]
    2f61:	e8 02 ff ff ff       	call   2e68 <code+0x2e68>
    2f66:	83 c4 10             	add    esp,0x10
    2f69:	e9 b8 00 00 00       	jmp    3026 <code+0x3026>
    2f6e:	83 7c 24 58 00       	cmp    DWORD PTR [esp+0x58],0x0
    2f73:	74 1e                	je     2f93 <code+0x2f93>
    2f75:	83 7c 24 54 0a       	cmp    DWORD PTR [esp+0x54],0xa
    2f7a:	75 17                	jne    2f93 <code+0x2f93>
    2f7c:	83 7c 24 50 00       	cmp    DWORD PTR [esp+0x50],0x0
    2f81:	79 10                	jns    2f93 <code+0x2f93>
    2f83:	c7 44 24 04 01 00 00 	mov    DWORD PTR [esp+0x4],0x1
    2f8a:	00 
    2f8b:	8b 44 24 50          	mov    eax,DWORD PTR [esp+0x50]
    2f8f:	f7 d8                	neg    eax
    2f91:	89 c6                	mov    esi,eax
    2f93:	8d 44 24 16          	lea    eax,[esp+0x16]
    2f97:	8d 58 21             	lea    ebx,[eax+0x21]
    2f9a:	c6 03 00             	mov    BYTE PTR [ebx],0x0
    2f9d:	eb 3a                	jmp    2fd9 <code+0x2fd9>
    2f9f:	8b 4c 24 54          	mov    ecx,DWORD PTR [esp+0x54]
    2fa3:	89 f0                	mov    eax,esi
    2fa5:	ba 00 00 00 00       	mov    edx,0x0
    2faa:	f7 f1                	div    ecx
    2fac:	89 d0                	mov    eax,edx
    2fae:	89 c7                	mov    edi,eax
    2fb0:	83 ff 09             	cmp    edi,0x9
    2fb3:	7e 09                	jle    2fbe <code+0x2fbe>
    2fb5:	8b 44 24 64          	mov    eax,DWORD PTR [esp+0x64]
    2fb9:	83 e8 3a             	sub    eax,0x3a
    2fbc:	01 c7                	add    edi,eax
    2fbe:	4b                   	dec    ebx
    2fbf:	89 f8                	mov    eax,edi
    2fc1:	83 c0 30             	add    eax,0x30
    2fc4:	88 03                	mov    BYTE PTR [ebx],al
    2fc6:	8b 44 24 54          	mov    eax,DWORD PTR [esp+0x54]
    2fca:	89 04 24             	mov    DWORD PTR [esp],eax
    2fcd:	89 f0                	mov    eax,esi
    2fcf:	ba 00 00 00 00       	mov    edx,0x0
    2fd4:	f7 34 24             	div    DWORD PTR [esp]
    2fd7:	89 c6                	mov    esi,eax
    2fd9:	85 f6                	test   esi,esi
    2fdb:	75 c2                	jne    2f9f <code+0x2f9f>
    2fdd:	83 7c 24 04 00       	cmp    DWORD PTR [esp+0x4],0x0
    2fe2:	74 2b                	je     300f <code+0x300f>
    2fe4:	83 7c 24 5c 00       	cmp    DWORD PTR [esp+0x5c],0x0
    2fe9:	74 20                	je     300b <code+0x300b>
    2feb:	8b 44 24 60          	mov    eax,DWORD PTR [esp+0x60]
    2fef:	83 e0 02             	and    eax,0x2
    2ff2:	85 c0                	test   eax,eax
    2ff4:	74 15                	je     300b <code+0x300b>
    2ff6:	6a 2d                	push   0x2d
    2ff8:	ff 74 24 50          	push   DWORD PTR [esp+0x50]
    2ffc:	e8 32 fe ff ff       	call   2e33 <code+0x2e33>
    3001:	83 c4 08             	add    esp,0x8
    3004:	45                   	inc    ebp
    3005:	ff 4c 24 5c          	dec    DWORD PTR [esp+0x5c]
    3009:	eb 04                	jmp    300f <code+0x300f>
    300b:	4b                   	dec    ebx
    300c:	c6 03 2d             	mov    BYTE PTR [ebx],0x2d
    300f:	ff 74 24 60          	push   DWORD PTR [esp+0x60]
    3013:	ff 74 24 60          	push   DWORD PTR [esp+0x60]
    3017:	53                   	push   ebx
    3018:	ff 74 24 58          	push   DWORD PTR [esp+0x58]
    301c:	e8 47 fe ff ff       	call   2e68 <code+0x2e68>
    3021:	83 c4 10             	add    esp,0x10
    3024:	01 e8                	add    eax,ebp
    3026:	83 c4 38             	add    esp,0x38
    3029:	5b                   	pop    ebx
    302a:	5e                   	pop    esi
    302b:	5f                   	pop    edi
    302c:	5d                   	pop    ebp
    302d:	c3                   	ret    
    302e:	55                   	push   ebp
    302f:	57                   	push   edi
    3030:	56                   	push   esi
    3031:	53                   	push   ebx
    3032:	83 ec 14             	sub    esp,0x14
    3035:	be 00 00 00 00       	mov    esi,0x0
    303a:	8b 44 24 2c          	mov    eax,DWORD PTR [esp+0x2c]
    303e:	8b 00                	mov    eax,DWORD PTR [eax]
    3040:	89 c3                	mov    ebx,eax
    3042:	83 44 24 2c 04       	add    DWORD PTR [esp+0x2c],0x4
    3047:	e9 dd 01 00 00       	jmp    3229 <code+0x3229>
    304c:	8a 03                	mov    al,BYTE PTR [ebx]
    304e:	3c 25                	cmp    al,0x25
    3050:	0f 85 b9 01 00 00    	jne    320f <code+0x320f>
    3056:	43                   	inc    ebx
    3057:	bd 00 00 00 00       	mov    ebp,0x0
    305c:	89 ef                	mov    edi,ebp
    305e:	8a 03                	mov    al,BYTE PTR [ebx]
    3060:	84 c0                	test   al,al
    3062:	0f 84 cd 01 00 00    	je     3235 <code+0x3235>
    3068:	8a 03                	mov    al,BYTE PTR [ebx]
    306a:	3c 25                	cmp    al,0x25
    306c:	0f 84 9c 01 00 00    	je     320e <code+0x320e>
    3072:	8a 03                	mov    al,BYTE PTR [ebx]
    3074:	3c 2d                	cmp    al,0x2d
    3076:	75 0e                	jne    3086 <code+0x3086>
    3078:	43                   	inc    ebx
    3079:	bd 01 00 00 00       	mov    ebp,0x1
    307e:	eb 07                	jmp    3087 <code+0x3087>
    3080:	43                   	inc    ebx
    3081:	83 cd 02             	or     ebp,0x2
    3084:	eb 01                	jmp    3087 <code+0x3087>
    3086:	90                   	nop
    3087:	8a 03                	mov    al,BYTE PTR [ebx]
    3089:	3c 30                	cmp    al,0x30
    308b:	74 f3                	je     3080 <code+0x3080>
    308d:	eb 16                	jmp    30a5 <code+0x30a5>
    308f:	89 f8                	mov    eax,edi
    3091:	c1 e0 02             	shl    eax,0x2
    3094:	01 f8                	add    eax,edi
    3096:	d1 e0                	shl    eax,1
    3098:	89 c7                	mov    edi,eax
    309a:	8a 03                	mov    al,BYTE PTR [ebx]
    309c:	0f be c0             	movsx  eax,al
    309f:	83 e8 30             	sub    eax,0x30
    30a2:	01 c7                	add    edi,eax
    30a4:	43                   	inc    ebx
    30a5:	8a 03                	mov    al,BYTE PTR [ebx]
    30a7:	3c 2f                	cmp    al,0x2f
    30a9:	7e 06                	jle    30b1 <code+0x30b1>
    30ab:	8a 03                	mov    al,BYTE PTR [ebx]
    30ad:	3c 39                	cmp    al,0x39
    30af:	7e de                	jle    308f <code+0x308f>
    30b1:	8a 03                	mov    al,BYTE PTR [ebx]
    30b3:	0f be c0             	movsx  eax,al
    30b6:	83 e8 58             	sub    eax,0x58
    30b9:	83 f8 20             	cmp    eax,0x20
    30bc:	0f 87 62 01 00 00    	ja     3224 <code+0x3224>
    30c2:	8b 04 85 e8 37 00 00 	mov    eax,DWORD PTR [eax*4+0x37e8]
    30c9:	ff e0                	jmp    eax
    30cb:	8b 44 24 2c          	mov    eax,DWORD PTR [esp+0x2c]
    30cf:	8b 00                	mov    eax,DWORD PTR [eax]
    30d1:	89 04 24             	mov    DWORD PTR [esp],eax
    30d4:	83 44 24 2c 04       	add    DWORD PTR [esp+0x2c],0x4
    30d9:	83 3c 24 00          	cmp    DWORD PTR [esp],0x0
    30dd:	74 05                	je     30e4 <code+0x30e4>
    30df:	8b 04 24             	mov    eax,DWORD PTR [esp]
    30e2:	eb 05                	jmp    30e9 <code+0x30e9>
    30e4:	b8 de 37 00 00       	mov    eax,0x37de
    30e9:	55                   	push   ebp
    30ea:	57                   	push   edi
    30eb:	50                   	push   eax
    30ec:	ff 74 24 34          	push   DWORD PTR [esp+0x34]
    30f0:	e8 73 fd ff ff       	call   2e68 <code+0x2e68>
    30f5:	83 c4 10             	add    esp,0x10
    30f8:	01 c6                	add    esi,eax
    30fa:	e9 29 01 00 00       	jmp    3228 <code+0x3228>
    30ff:	8b 44 24 2c          	mov    eax,DWORD PTR [esp+0x2c]
    3103:	8b 00                	mov    eax,DWORD PTR [eax]
    3105:	83 44 24 2c 04       	add    DWORD PTR [esp+0x2c],0x4
    310a:	6a 61                	push   0x61
    310c:	55                   	push   ebp
    310d:	57                   	push   edi
    310e:	6a 01                	push   0x1
    3110:	6a 0a                	push   0xa
    3112:	50                   	push   eax
    3113:	ff 74 24 40          	push   DWORD PTR [esp+0x40]
    3117:	e8 0b fe ff ff       	call   2f27 <code+0x2f27>
    311c:	83 c4 1c             	add    esp,0x1c
    311f:	01 c6                	add    esi,eax
    3121:	e9 02 01 00 00       	jmp    3228 <code+0x3228>
    3126:	8b 44 24 2c          	mov    eax,DWORD PTR [esp+0x2c]
    312a:	8b 00                	mov    eax,DWORD PTR [eax]
    312c:	83 44 24 2c 04       	add    DWORD PTR [esp+0x2c],0x4
    3131:	6a 61                	push   0x61
    3133:	55                   	push   ebp
    3134:	57                   	push   edi
    3135:	6a 00                	push   0x0
    3137:	6a 08                	push   0x8
    3139:	50                   	push   eax
    313a:	ff 74 24 40          	push   DWORD PTR [esp+0x40]
    313e:	e8 e4 fd ff ff       	call   2f27 <code+0x2f27>
    3143:	83 c4 1c             	add    esp,0x1c
    3146:	01 c6                	add    esi,eax
    3148:	e9 db 00 00 00       	jmp    3228 <code+0x3228>
    314d:	8b 44 24 2c          	mov    eax,DWORD PTR [esp+0x2c]
    3151:	8b 00                	mov    eax,DWORD PTR [eax]
    3153:	83 44 24 2c 04       	add    DWORD PTR [esp+0x2c],0x4
    3158:	6a 61                	push   0x61
    315a:	55                   	push   ebp
    315b:	57                   	push   edi
    315c:	6a 00                	push   0x0
    315e:	6a 02                	push   0x2
    3160:	50                   	push   eax
    3161:	ff 74 24 40          	push   DWORD PTR [esp+0x40]
    3165:	e8 bd fd ff ff       	call   2f27 <code+0x2f27>
    316a:	83 c4 1c             	add    esp,0x1c
    316d:	01 c6                	add    esi,eax
    316f:	e9 b4 00 00 00       	jmp    3228 <code+0x3228>
    3174:	8b 44 24 2c          	mov    eax,DWORD PTR [esp+0x2c]
    3178:	8b 00                	mov    eax,DWORD PTR [eax]
    317a:	83 44 24 2c 04       	add    DWORD PTR [esp+0x2c],0x4
    317f:	6a 61                	push   0x61
    3181:	55                   	push   ebp
    3182:	57                   	push   edi
    3183:	6a 00                	push   0x0
    3185:	6a 10                	push   0x10
    3187:	50                   	push   eax
    3188:	ff 74 24 40          	push   DWORD PTR [esp+0x40]
    318c:	e8 96 fd ff ff       	call   2f27 <code+0x2f27>
    3191:	83 c4 1c             	add    esp,0x1c
    3194:	01 c6                	add    esi,eax
    3196:	e9 8d 00 00 00       	jmp    3228 <code+0x3228>
    319b:	8b 44 24 2c          	mov    eax,DWORD PTR [esp+0x2c]
    319f:	8b 00                	mov    eax,DWORD PTR [eax]
    31a1:	83 44 24 2c 04       	add    DWORD PTR [esp+0x2c],0x4
    31a6:	6a 41                	push   0x41
    31a8:	55                   	push   ebp
    31a9:	57                   	push   edi
    31aa:	6a 00                	push   0x0
    31ac:	6a 10                	push   0x10
    31ae:	50                   	push   eax
    31af:	ff 74 24 40          	push   DWORD PTR [esp+0x40]
    31b3:	e8 6f fd ff ff       	call   2f27 <code+0x2f27>
    31b8:	83 c4 1c             	add    esp,0x1c
    31bb:	01 c6                	add    esi,eax
    31bd:	eb 69                	jmp    3228 <code+0x3228>
    31bf:	8b 44 24 2c          	mov    eax,DWORD PTR [esp+0x2c]
    31c3:	8b 00                	mov    eax,DWORD PTR [eax]
    31c5:	83 44 24 2c 04       	add    DWORD PTR [esp+0x2c],0x4
    31ca:	6a 61                	push   0x61
    31cc:	55                   	push   ebp
    31cd:	57                   	push   edi
    31ce:	6a 00                	push   0x0
    31d0:	6a 0a                	push   0xa
    31d2:	50                   	push   eax
    31d3:	ff 74 24 40          	push   DWORD PTR [esp+0x40]
    31d7:	e8 4b fd ff ff       	call   2f27 <code+0x2f27>
    31dc:	83 c4 1c             	add    esp,0x1c
    31df:	01 c6                	add    esi,eax
    31e1:	eb 45                	jmp    3228 <code+0x3228>
    31e3:	8b 44 24 2c          	mov    eax,DWORD PTR [esp+0x2c]
    31e7:	8b 00                	mov    eax,DWORD PTR [eax]
    31e9:	88 44 24 12          	mov    BYTE PTR [esp+0x12],al
    31ed:	83 44 24 2c 04       	add    DWORD PTR [esp+0x2c],0x4
    31f2:	c6 44 24 13 00       	mov    BYTE PTR [esp+0x13],0x0
    31f7:	55                   	push   ebp
    31f8:	57                   	push   edi
    31f9:	8d 44 24 1a          	lea    eax,[esp+0x1a]
    31fd:	50                   	push   eax
    31fe:	ff 74 24 34          	push   DWORD PTR [esp+0x34]
    3202:	e8 61 fc ff ff       	call   2e68 <code+0x2e68>
    3207:	83 c4 10             	add    esp,0x10
    320a:	01 c6                	add    esi,eax
    320c:	eb 1a                	jmp    3228 <code+0x3228>
    320e:	90                   	nop
    320f:	8a 03                	mov    al,BYTE PTR [ebx]
    3211:	0f be c0             	movsx  eax,al
    3214:	50                   	push   eax
    3215:	ff 74 24 2c          	push   DWORD PTR [esp+0x2c]
    3219:	e8 15 fc ff ff       	call   2e33 <code+0x2e33>
    321e:	83 c4 08             	add    esp,0x8
    3221:	46                   	inc    esi
    3222:	eb 04                	jmp    3228 <code+0x3228>
    3224:	90                   	nop
    3225:	eb 01                	jmp    3228 <code+0x3228>
    3227:	90                   	nop
    3228:	43                   	inc    ebx
    3229:	8a 03                	mov    al,BYTE PTR [ebx]
    322b:	84 c0                	test   al,al
    322d:	0f 85 19 fe ff ff    	jne    304c <code+0x304c>
    3233:	eb 01                	jmp    3236 <code+0x3236>
    3235:	90                   	nop
    3236:	83 7c 24 28 ff       	cmp    DWORD PTR [esp+0x28],0xffffffff
    323b:	74 10                	je     324d <code+0x324d>
    323d:	83 7c 24 28 00       	cmp    DWORD PTR [esp+0x28],0x0
    3242:	74 09                	je     324d <code+0x324d>
    3244:	8b 44 24 28          	mov    eax,DWORD PTR [esp+0x28]
    3248:	8b 00                	mov    eax,DWORD PTR [eax]
    324a:	c6 00 00             	mov    BYTE PTR [eax],0x0
    324d:	89 f0                	mov    eax,esi
    324f:	83 c4 14             	add    esp,0x14
    3252:	5b                   	pop    ebx
    3253:	5e                   	pop    esi
    3254:	5f                   	pop    edi
    3255:	5d                   	pop    ebp
    3256:	c3                   	ret    
    3257:	53                   	push   ebx
    3258:	8d 5c 24 08          	lea    ebx,[esp+0x8]
    325c:	53                   	push   ebx
    325d:	6a 00                	push   0x0
    325f:	e8 ca fd ff ff       	call   302e <code+0x302e>
    3264:	83 c4 08             	add    esp,0x8
    3267:	5b                   	pop    ebx
    3268:	c3                   	ret    
    3269:	53                   	push   ebx
    326a:	8d 5c 24 0c          	lea    ebx,[esp+0xc]
    326e:	53                   	push   ebx
    326f:	8d 44 24 0c          	lea    eax,[esp+0xc]
    3273:	50                   	push   eax
    3274:	e8 b5 fd ff ff       	call   302e <code+0x302e>
    3279:	83 c4 08             	add    esp,0x8
    327c:	5b                   	pop    ebx
    327d:	c3                   	ret    
    327e:	75 76                	jne    32f6 <code+0x32f6>
    3280:	69 3a 20 75 76 69    	imul   edi,DWORD PTR [edx],0x69767520
    3286:	20 66 69             	and    BYTE PTR [esi+0x69],ah
    3289:	6c                   	ins    BYTE PTR es:[edi],dx
    328a:	65 6e                	outs   dx,BYTE PTR gs:[esi]
    328c:	61                   	popa   
    328d:	6d                   	ins    DWORD PTR es:[edi],dx
    328e:	65 0a 00             	or     al,BYTE PTR gs:[eax]
    3291:	75 76                	jne    3309 <code+0x3309>
    3293:	69 3a 20 63 61 6e    	imul   edi,DWORD PTR [edx],0x6e616320
    3299:	6e                   	outs   dx,BYTE PTR ds:[esi]
    329a:	6f                   	outs   dx,DWORD PTR ds:[esi]
    329b:	74 20                	je     32bd <code+0x32bd>
    329d:	6f                   	outs   dx,DWORD PTR ds:[esi]
    329e:	70 65                	jo     3305 <code+0x3305>
    32a0:	6e                   	outs   dx,BYTE PTR ds:[esi]
    32a1:	20 66 69             	and    BYTE PTR [esi+0x69],ah
    32a4:	6c                   	ins    BYTE PTR es:[edi],dx
    32a5:	65 20 25 73 2e 0a 00 	and    BYTE PTR gs:0xa2e73,ah
    32ac:	4e                   	dec    esi
    32ad:	45                   	inc    ebp
    32ae:	57                   	push   edi
    32af:	20 4c 49 4e          	and    BYTE PTR [ecx+ecx*2+0x4e],cl
    32b3:	45                   	inc    ebp
    32b4:	0a 00                	or     al,BYTE PTR [eax]
    32b6:	44                   	inc    esp
    32b7:	4f                   	dec    edi
    32b8:	4e                   	dec    esi
    32b9:	45                   	inc    ebp
    32ba:	20 52 45             	and    BYTE PTR [edx+0x45],dl
    32bd:	41                   	inc    ecx
    32be:	44                   	inc    esp
    32bf:	49                   	dec    ecx
    32c0:	4e                   	dec    esi
    32c1:	47                   	inc    edi
    32c2:	0a 00                	or     al,BYTE PTR [eax]
    32c4:	25 73 00 75 76       	and    eax,0x76750073
    32c9:	69 3a 20 49 6e 73    	imul   edi,DWORD PTR [edx],0x736e4920
    32cf:	65                   	gs
    32d0:	72 74                	jb     3346 <code+0x3346>
    32d2:	20 00                	and    BYTE PTR [eax],al
    32d4:	0a 00                	or     al,BYTE PTR [eax]
    32d6:	25 32 64 28 25       	and    eax,0x25286432
    32db:	32 64 29 3a          	xor    ah,BYTE PTR [ecx+ebp*1+0x3a]
    32df:	20 25 73 0a 00 6c    	and    BYTE PTR ds:0x6c000a73,ah
    32e5:	69 6e 65 73 5b 25 32 	imul   ebp,DWORD PTR [esi+0x65],0x32255b73
    32ec:	64                   	fs
    32ed:	5d                   	pop    ebp
    32ee:	5b                   	pop    ebx
    32ef:	25 32 64 5d 20       	and    eax,0x205d6432
    32f4:	3d 20 25 63 20       	cmp    eax,0x20632520
    32f9:	28 25 32 78 29 20    	sub    BYTE PTR ds:0x20297832,ah
    32ff:	20 00                	and    BYTE PTR [eax],al
    3301:	72 65                	jb     3368 <code+0x3368>
    3303:	61                   	popa   
    3304:	64 20 63 68          	and    BYTE PTR fs:[ebx+0x68],ah
    3308:	61                   	popa   
    3309:	72 3a                	jb     3345 <code+0x3345>
    330b:	20 25 63 2c 20 41    	and    BYTE PTR ds:0x41202c63,ah
    3311:	53                   	push   ebx
    3312:	43                   	inc    ebx
    3313:	49                   	dec    ecx
    3314:	49                   	dec    ecx
    3315:	3a 20                	cmp    ah,BYTE PTR [eax]
    3317:	25 33 64 20 20       	and    eax,0x20206433
    331c:	20 00                	and    BYTE PTR [eax],al
    331e:	25 32 64 2c 25       	and    eax,0x252c6432
    3323:	32 64 00 7e          	xor    ah,BYTE PTR [eax+eax*1+0x7e]
    3327:	00 75 76             	add    BYTE PTR [ebp+0x76],dh
    332a:	69 3a 20 43 6f 6d    	imul   edi,DWORD PTR [edx],0x6d6f4320
    3330:	6d                   	ins    DWORD PTR es:[edi],dx
    3331:	61                   	popa   
    3332:	6e                   	outs   dx,BYTE PTR ds:[esi]
    3333:	64 00 44 45 4c       	add    BYTE PTR fs:[ebp+eax*2+0x4c],al
    3338:	45                   	inc    ebp
    3339:	54                   	push   esp
    333a:	45                   	inc    ebp
    333b:	5f                   	pop    edi
    333c:	43                   	inc    ebx
    333d:	20 20                	and    BYTE PTR [eax],ah
    333f:	20 20                	and    BYTE PTR [eax],ah
    3341:	20 00                	and    BYTE PTR [eax],al
    3343:	44                   	inc    esp
    3344:	45                   	inc    ebp
    3345:	4c                   	dec    esp
    3346:	45                   	inc    ebp
    3347:	54                   	push   esp
    3348:	45                   	inc    ebp
    3349:	5f                   	pop    edi
    334a:	4c                   	dec    esp
    334b:	20 20                	and    BYTE PTR [eax],ah
    334d:	20 20                	and    BYTE PTR [eax],ah
    334f:	20 00                	and    BYTE PTR [eax],al
    3351:	3a 00                	cmp    al,BYTE PTR [eax]
    3353:	77 71                	ja     33c6 <code+0x33c6>
    3355:	00 77 72             	add    BYTE PTR [edi+0x72],dh
    3358:	69 74 65 20 61 6e 64 	imul   esi,DWORD PTR [ebp+eiz*2+0x20],0x20646e61
    335f:	20 
    3360:	71 75                	jno    33d7 <code+0x33d7>
    3362:	69 74 0a 00 71 21 00 	imul   esi,DWORD PTR [edx+ecx*1+0x0],0x71002171
    3369:	71 
    336a:	75 69                	jne    33d5 <code+0x33d5>
    336c:	74 21                	je     338f <code+0x338f>
    336e:	0a 00                	or     al,BYTE PTR [eax]
    3370:	2f                   	das    
    3371:	00 2e                	add    BYTE PTR [esi],ch
    3373:	00 45 52             	add    BYTE PTR [ebp+0x52],al
    3376:	52                   	push   edx
    3377:	4f                   	dec    edi
    3378:	52                   	push   edx
    3379:	3a 20                	cmp    ah,BYTE PTR [eax]
    337b:	70 6f                	jo     33ec <code+0x33ec>
    337d:	73 20                	jae    339f <code+0x339f>
    337f:	3c 20                	cmp    al,0x20
    3381:	30 0a                	xor    BYTE PTR [edx],cl
    3383:	00 0a                	add    BYTE PTR [edx],cl
    3385:	00 65 78             	add    BYTE PTR [ebp+0x78],ah
    3388:	69 74 00 65 78 69 74 	imul   esi,DWORD PTR [eax+eax*1+0x65],0xa746978
    338f:	0a 
    3390:	00 08                	add    BYTE PTR [eax],cl
    3392:	20 08                	and    BYTE PTR [eax],cl
    3394:	00 2f                	add    BYTE PTR [edi],ch
    3396:	65                   	gs
    3397:	74 63                	je     33fc <code+0x33fc>
    3399:	2f                   	das    
    339a:	70 61                	jo     33fd <code+0x33fd>
    339c:	73 73                	jae    3411 <code+0x3411>
    339e:	77 64                	ja     3404 <code+0x3404>
    33a0:	00 43 61             	add    BYTE PTR [ebx+0x61],al
    33a3:	6e                   	outs   dx,BYTE PTR ds:[esi]
    33a4:	6e                   	outs   dx,BYTE PTR ds:[esi]
    33a5:	6f                   	outs   dx,DWORD PTR ds:[esi]
    33a6:	74 20                	je     33c8 <code+0x33c8>
    33a8:	6f                   	outs   dx,DWORD PTR ds:[esi]
    33a9:	70 65                	jo     3410 <code+0x3410>
    33ab:	6e                   	outs   dx,BYTE PTR ds:[esi]
    33ac:	20 2f                	and    BYTE PTR [edi],ch
    33ae:	65                   	gs
    33af:	74 63                	je     3414 <code+0x3414>
    33b1:	2f                   	das    
    33b2:	70 61                	jo     3415 <code+0x3415>
    33b4:	73 73                	jae    3429 <code+0x3429>
    33b6:	77 64                	ja     341c <code+0x341c>
    33b8:	0a 00                	or     al,BYTE PTR [eax]
    33ba:	00 00                	add    BYTE PTR [eax],al
    33bc:	43                   	inc    ebx
    33bd:	61                   	popa   
    33be:	6e                   	outs   dx,BYTE PTR ds:[esi]
    33bf:	6e                   	outs   dx,BYTE PTR ds:[esi]
    33c0:	6f                   	outs   dx,DWORD PTR ds:[esi]
    33c1:	74 20                	je     33e3 <code+0x33e3>
    33c3:	72 65                	jb     342a <code+0x342a>
    33c5:	61                   	popa   
    33c6:	64 20 2f             	and    BYTE PTR fs:[edi],ch
    33c9:	65                   	gs
    33ca:	74 63                	je     342f <code+0x342f>
    33cc:	2f                   	das    
    33cd:	70 61                	jo     3430 <code+0x3430>
    33cf:	73 73                	jae    3444 <code+0x3444>
    33d1:	77 64                	ja     3437 <code+0x3437>
    33d3:	2c 20                	sub    al,0x20
    33d5:	66                   	data16
    33d6:	64 20 3d 20 25 64 0a 	and    BYTE PTR fs:0xa642520,bh
    33dd:	00 70 61             	add    BYTE PTR [eax+0x61],dh
    33e0:	73 73                	jae    3455 <code+0x3455>
    33e2:	77 6f                	ja     3453 <code+0x3453>
    33e4:	72 64                	jb     344a <code+0x344a>
    33e6:	73 00                	jae    33e8 <code+0x33e8>
	...
    37dc:	00 00                	add    BYTE PTR [eax],al
    37de:	28 6e 75             	sub    BYTE PTR [esi+0x75],ch
    37e1:	6c                   	ins    BYTE PTR es:[edi],dx
    37e2:	6c                   	ins    BYTE PTR es:[edi],dx
    37e3:	29 00                	sub    DWORD PTR [eax],eax
    37e5:	00 00                	add    BYTE PTR [eax],al
    37e7:	00 9b 31 00 00 27    	add    BYTE PTR [ebx+0x27000031],bl
    37ed:	32 00                	xor    al,BYTE PTR [eax]
    37ef:	00 27                	add    BYTE PTR [edi],ah
    37f1:	32 00                	xor    al,BYTE PTR [eax]
    37f3:	00 27                	add    BYTE PTR [edi],ah
    37f5:	32 00                	xor    al,BYTE PTR [eax]
    37f7:	00 27                	add    BYTE PTR [edi],ah
    37f9:	32 00                	xor    al,BYTE PTR [eax]
    37fb:	00 27                	add    BYTE PTR [edi],ah
    37fd:	32 00                	xor    al,BYTE PTR [eax]
    37ff:	00 27                	add    BYTE PTR [edi],ah
    3801:	32 00                	xor    al,BYTE PTR [eax]
    3803:	00 27                	add    BYTE PTR [edi],ah
    3805:	32 00                	xor    al,BYTE PTR [eax]
    3807:	00 27                	add    BYTE PTR [edi],ah
    3809:	32 00                	xor    al,BYTE PTR [eax]
    380b:	00 27                	add    BYTE PTR [edi],ah
    380d:	32 00                	xor    al,BYTE PTR [eax]
    380f:	00 4d 31             	add    BYTE PTR [ebp+0x31],cl
    3812:	00 00                	add    BYTE PTR [eax],al
    3814:	e3 31                	jecxz  3847 <code+0x3847>
    3816:	00 00                	add    BYTE PTR [eax],al
    3818:	ff 30                	push   DWORD PTR [eax]
    381a:	00 00                	add    BYTE PTR [eax],al
    381c:	27                   	daa    
    381d:	32 00                	xor    al,BYTE PTR [eax]
    381f:	00 27                	add    BYTE PTR [edi],ah
    3821:	32 00                	xor    al,BYTE PTR [eax]
    3823:	00 27                	add    BYTE PTR [edi],ah
    3825:	32 00                	xor    al,BYTE PTR [eax]
    3827:	00 27                	add    BYTE PTR [edi],ah
    3829:	32 00                	xor    al,BYTE PTR [eax]
    382b:	00 27                	add    BYTE PTR [edi],ah
    382d:	32 00                	xor    al,BYTE PTR [eax]
    382f:	00 27                	add    BYTE PTR [edi],ah
    3831:	32 00                	xor    al,BYTE PTR [eax]
    3833:	00 27                	add    BYTE PTR [edi],ah
    3835:	32 00                	xor    al,BYTE PTR [eax]
    3837:	00 27                	add    BYTE PTR [edi],ah
    3839:	32 00                	xor    al,BYTE PTR [eax]
    383b:	00 27                	add    BYTE PTR [edi],ah
    383d:	32 00                	xor    al,BYTE PTR [eax]
    383f:	00 27                	add    BYTE PTR [edi],ah
    3841:	32 00                	xor    al,BYTE PTR [eax]
    3843:	00 26                	add    BYTE PTR [esi],ah
    3845:	31 00                	xor    DWORD PTR [eax],eax
    3847:	00 27                	add    BYTE PTR [edi],ah
    3849:	32 00                	xor    al,BYTE PTR [eax]
    384b:	00 27                	add    BYTE PTR [edi],ah
    384d:	32 00                	xor    al,BYTE PTR [eax]
    384f:	00 27                	add    BYTE PTR [edi],ah
    3851:	32 00                	xor    al,BYTE PTR [eax]
    3853:	00 cb                	add    bl,cl
    3855:	30 00                	xor    BYTE PTR [eax],al
    3857:	00 27                	add    BYTE PTR [edi],ah
    3859:	32 00                	xor    al,BYTE PTR [eax]
    385b:	00 bf 31 00 00 27    	add    BYTE PTR [edi+0x27000031],bh
    3861:	32 00                	xor    al,BYTE PTR [eax]
    3863:	00 27                	add    BYTE PTR [edi],ah
    3865:	32 00                	xor    al,BYTE PTR [eax]
    3867:	00 74 31 00          	add    BYTE PTR [ecx+esi*1+0x0],dh
	...
